(imatplotlib.font_manager
FontManager
p1
(dp2
S'afm_lookup_cache'
p3
(dp4
sS'ttflist'
p5
(lp6
ccopy_reg
_reconstructor
p7
(cmatplotlib.font_manager
FontEntry
p8
c__builtin__
object
p9
NtRp10
(dp11
S'style'
p12
S'normal'
p13
sS'name'
p14
S'cmb10'
p15
sS'weight'
p16
I400
sS'stretch'
p17
g13
sS'variant'
p18
g13
sS'fname'
p19
S'/usr/share/matplotlib/mpl-data/fonts/ttf/cmb10.ttf'
p20
sS'size'
p21
S'scalable'
p22
sbag7
(g8
g9
NtRp23
(dp24
g12
g13
sg14
S'cmex10'
p25
sg16
I400
sg17
g13
sg18
g13
sg19
S'/usr/share/matplotlib/mpl-data/fonts/ttf/cmex10.ttf'
p26
sg21
g22
sbag7
(g8
g9
NtRp27
(dp28
g12
S'italic'
p29
sg14
S'STIXNonUnicode'
p30
sg16
I400
sg17
g13
sg18
g13
sg19
S'/usr/share/matplotlib/mpl-data/fonts/ttf/STIXNonUniIta.ttf'
p31
sg21
g22
sbag7
(g8
g9
NtRp32
(dp33
g12
g13
sg14
S'STIXNonUnicode'
p34
sg16
I400
sg17
g13
sg18
g13
sg19
S'/usr/share/matplotlib/mpl-data/fonts/ttf/STIXNonUni.ttf'
p35
sg21
g22
sbag7
(g8
g9
NtRp36
(dp37
g12
g13
sg14
S'STIXSizeThreeSym'
p38
sg16
I400
sg17
g13
sg18
g13
sg19
S'/usr/share/matplotlib/mpl-data/fonts/ttf/STIXSizThreeSymReg.ttf'
p39
sg21
g22
sbag7
(g8
g9
NtRp40
(dp41
g12
g13
sg14
S'STIXSizeTwoSym'
p42
sg16
I700
sg17
g13
sg18
g13
sg19
S'/usr/share/matplotlib/mpl-data/fonts/ttf/STIXSizTwoSymBol.ttf'
p43
sg21
g22
sbag7
(g8
g9
NtRp44
(dp45
g12
g13
sg14
S'cmtt10'
p46
sg16
I400
sg17
g13
sg18
g13
sg19
S'/usr/share/matplotlib/mpl-data/fonts/ttf/cmtt10.ttf'
p47
sg21
g22
sbag7
(g8
g9
NtRp48
(dp49
g12
g13
sg14
S'STIXGeneral'
p50
sg16
I400
sg17
g13
sg18
g13
sg19
S'/usr/share/matplotlib/mpl-data/fonts/ttf/STIXGeneral.ttf'
p51
sg21
g22
sbag7
(g8
g9
NtRp52
(dp53
g12
g13
sg14
S'STIXSizeThreeSym'
p54
sg16
I700
sg17
g13
sg18
g13
sg19
S'/usr/share/matplotlib/mpl-data/fonts/ttf/STIXSizThreeSymBol.ttf'
p55
sg21
g22
sbag7
(g8
g9
NtRp56
(dp57
g12
g13
sg14
S'STIXSizeFiveSym'
p58
sg16
I400
sg17
g13
sg18
g13
sg19
S'/usr/share/matplotlib/mpl-data/fonts/ttf/STIXSizFiveSymReg.ttf'
p59
sg21
g22
sbag7
(g8
g9
NtRp60
(dp61
g12
g13
sg14
S'STIXSizeOneSym'
p62
sg16
I700
sg17
g13
sg18
g13
sg19
S'/usr/share/matplotlib/mpl-data/fonts/ttf/STIXSizOneSymBol.ttf'
p63
sg21
g22
sbag7
(g8
g9
NtRp64
(dp65
g12
g13
sg14
S'STIXGeneral'
p66
sg16
I700
sg17
g13
sg18
g13
sg19
S'/usr/share/matplotlib/mpl-data/fonts/ttf/STIXGeneralBol.ttf'
p67
sg21
g22
sbag7
(g8
g9
NtRp68
(dp69
g12
g13
sg14
S'cmr10'
p70
sg16
I400
sg17
g13
sg18
g13
sg19
S'/usr/share/matplotlib/mpl-data/fonts/ttf/cmr10.ttf'
p71
sg21
g22
sbag7
(g8
g9
NtRp72
(dp73
g12
g13
sg14
S'STIXSizeTwoSym'
p74
sg16
I400
sg17
g13
sg18
g13
sg19
S'/usr/share/matplotlib/mpl-data/fonts/ttf/STIXSizTwoSymReg.ttf'
p75
sg21
g22
sbag7
(g8
g9
NtRp76
(dp77
g12
g13
sg14
S'STIXSizeFourSym'
p78
sg16
I400
sg17
g13
sg18
g13
sg19
S'/usr/share/matplotlib/mpl-data/fonts/ttf/STIXSizFourSymReg.ttf'
p79
sg21
g22
sbag7
(g8
g9
NtRp80
(dp81
g12
g13
sg14
S'cmsy10'
p82
sg16
I400
sg17
g13
sg18
g13
sg19
S'/usr/share/matplotlib/mpl-data/fonts/ttf/cmsy10.ttf'
p83
sg21
g22
sbag7
(g8
g9
NtRp84
(dp85
g12
g29
sg14
S'STIXNonUnicode'
p86
sg16
I700
sg17
g13
sg18
g13
sg19
S'/usr/share/matplotlib/mpl-data/fonts/ttf/STIXNonUniBolIta.ttf'
p87
sg21
g22
sbag7
(g8
g9
NtRp88
(dp89
g12
g13
sg14
S'cmss10'
p90
sg16
I400
sg17
g13
sg18
g13
sg19
S'/usr/share/matplotlib/mpl-data/fonts/ttf/cmss10.ttf'
p91
sg21
g22
sbag7
(g8
g9
NtRp92
(dp93
g12
g13
sg14
S'STIXSizeFourSym'
p94
sg16
I700
sg17
g13
sg18
g13
sg19
S'/usr/share/matplotlib/mpl-data/fonts/ttf/STIXSizFourSymBol.ttf'
p95
sg21
g22
sbag7
(g8
g9
NtRp96
(dp97
g12
g29
sg14
S'STIXGeneral'
p98
sg16
I400
sg17
g13
sg18
g13
sg19
S'/usr/share/matplotlib/mpl-data/fonts/ttf/STIXGeneralItalic.ttf'
p99
sg21
g22
sbag7
(g8
g9
NtRp100
(dp101
g12
g13
sg14
S'STIXSizeOneSym'
p102
sg16
I400
sg17
g13
sg18
g13
sg19
S'/usr/share/matplotlib/mpl-data/fonts/ttf/STIXSizOneSymReg.ttf'
p103
sg21
g22
sbag7
(g8
g9
NtRp104
(dp105
g12
g13
sg14
S'cmmi10'
p106
sg16
I400
sg17
g13
sg18
g13
sg19
S'/usr/share/matplotlib/mpl-data/fonts/ttf/cmmi10.ttf'
p107
sg21
g22
sbag7
(g8
g9
NtRp108
(dp109
g12
g13
sg14
S'STIXNonUnicode'
p110
sg16
I700
sg17
g13
sg18
g13
sg19
S'/usr/share/matplotlib/mpl-data/fonts/ttf/STIXNonUniBol.ttf'
p111
sg21
g22
sbag7
(g8
g9
NtRp112
(dp113
g12
g29
sg14
S'STIXGeneral'
p114
sg16
I700
sg17
g13
sg18
g13
sg19
S'/usr/share/matplotlib/mpl-data/fonts/ttf/STIXGeneralBolIta.ttf'
p115
sg21
g22
sbag7
(g8
g9
NtRp116
(dp117
g12
g13
sg14
S'Liberation Sans Narrow'
p118
sg16
I400
sg17
S'condensed'
p119
sg18
g13
sg19
S'/usr/share/fonts/truetype/ttf-liberation/LiberationSansNarrow-Regular.ttf'
p120
sg21
g22
sbag7
(g8
g9
NtRp121
(dp122
g12
S'oblique'
p123
sg14
S'Purisa'
p124
sg16
I700
sg17
g13
sg18
g13
sg19
S'/usr/share/fonts/truetype/thai/Purisa-BoldOblique.ttf'
p125
sg21
g22
sbag7
(g8
g9
NtRp126
(dp127
g12
g13
sg14
S'Ume UI Gothic'
p128
sg16
I400
sg17
g13
sg18
g13
sg19
S'/usr/share/fonts/truetype/fonts-horai-umefont/ume-ugo4.ttf'
p129
sg21
g22
sbag7
(g8
g9
NtRp130
(dp131
g12
g13
sg14
S'Mallige'
p132
sg16
I700
sg17
g13
sg18
g13
sg19
S'/usr/share/fonts/truetype/ttf-indic-fonts-core/Malige-b.ttf'
p133
sg21
g22
sbag7
(g8
g9
NtRp134
(dp135
g12
g123
sg14
S'Kinnari'
p136
sg16
I700
sg17
g13
sg18
g13
sg19
S'/usr/share/fonts/truetype/thai/Kinnari-BoldOblique.ttf'
p137
sg21
g22
sbag7
(g8
g9
NtRp138
(dp139
g12
g123
sg14
S'Tlwg Typo'
p140
sg16
I400
sg17
g13
sg18
g13
sg19
S'/usr/share/fonts/truetype/thai/TlwgTypo-Oblique.ttf'
p141
sg21
g22
sbag7
(g8
g9
NtRp142
(dp143
g12
g13
sg14
S'Liberation Sans'
p144
sg16
I700
sg17
g13
sg18
g13
sg19
S'/usr/share/fonts/truetype/ttf-liberation/LiberationSans-Bold.ttf'
p145
sg21
g22
sbag7
(g8
g9
NtRp146
(dp147
g12
g13
sg14
S'Umpush'
p148
sg16
I400
sg17
g13
sg18
g13
sg19
S'/usr/share/fonts/truetype/thai/Umpush.ttf'
p149
sg21
g22
sbag7
(g8
g9
NtRp150
(dp151
g12
g13
sg14
S'Times New Roman'
p152
sg16
I500
sg17
g13
sg18
g13
sg19
S'/usr/share/fonts/truetype/msttcorefonts/Times_New_Roman.ttf'
p153
sg21
g22
sbag7
(g8
g9
NtRp154
(dp155
g12
g123
sg14
S'Loma'
p156
sg16
I700
sg17
g13
sg18
g13
sg19
S'/usr/share/fonts/truetype/thai/Loma-BoldOblique.ttf'
p157
sg21
g22
sbag7
(g8
g9
NtRp158
(dp159
g12
g13
sg14
S'FreeSans'
p160
sg16
I400
sg17
g13
sg18
g13
sg19
S'/usr/share/fonts/truetype/freefont/FreeSans.ttf'
p161
sg21
g22
sbag7
(g8
g9
NtRp162
(dp163
g12
g13
sg14
S'UnBatang'
p164
sg16
I700
sg17
g13
sg18
g13
sg19
S'/usr/share/fonts/truetype/unfonts/UnBatangBold.ttf'
p165
sg21
g22
sbag7
(g8
g9
NtRp166
(dp167
g12
g29
sg14
S'Verdana'
p168
sg16
I400
sg17
g13
sg18
g13
sg19
S'/usr/share/fonts/truetype/msttcorefonts/verdanai.ttf'
p169
sg21
g22
sbag7
(g8
g9
NtRp170
(dp171
g12
g13
sg14
S'FreeSerif'
p172
sg16
I400
sg17
g13
sg18
g13
sg19
S'/usr/share/fonts/truetype/freefont/FreeSerif.ttf'
p173
sg21
g22
sbag7
(g8
g9
NtRp174
(dp175
g12
g29
sg14
S'rsfs10'
p176
sg16
I400
sg17
g13
sg18
g13
sg19
S'/usr/share/fonts/truetype/ttf-lyx/rsfs10.ttf'
p177
sg21
g22
sbag7
(g8
g9
NtRp178
(dp179
g12
g13
sg14
S'DejaVu Sans'
p180
sg16
I400
sg17
g119
sg18
g13
sg19
S'/usr/share/fonts/truetype/ttf-dejavu/DejaVuSansCondensed.ttf'
p181
sg21
g22
sbag7
(g8
g9
NtRp182
(dp183
g12
g13
sg14
S'Liberation Mono'
p184
sg16
I700
sg17
g13
sg18
g13
sg19
S'/usr/share/fonts/truetype/ttf-liberation/LiberationMono-Bold.ttf'
p185
sg21
g22
sbag7
(g8
g9
NtRp186
(dp187
g12
g13
sg14
S'Ume Mincho S3'
p188
sg16
I400
sg17
g13
sg18
g13
sg19
S'/usr/share/fonts/truetype/fonts-horai-umefont/ume-tms3.ttf'
p189
sg21
g22
sbag7
(g8
g9
NtRp190
(dp191
g12
g13
sg14
S'Droid Sans Fallback'
p192
sg16
I400
sg17
g13
sg18
g13
sg19
S'/usr/share/fonts/truetype/ttf-droid/DroidSansFallback.ttf'
p193
sg21
g22
sbag7
(g8
g9
NtRp194
(dp195
g12
g13
sg14
S'Phetsarath OT'
p196
sg16
I400
sg17
g13
sg18
g13
sg19
S'/usr/share/fonts/truetype/ttf-lao/Phetsarath_OT.ttf'
p197
sg21
g22
sbag7
(g8
g9
NtRp198
(dp199
g12
g13
sg14
S'DejaVu Sans Mono'
p200
sg16
I400
sg17
g13
sg18
g13
sg19
S'/usr/share/fonts/truetype/ttf-dejavu/DejaVuSansMono.ttf'
p201
sg21
g22
sbag7
(g8
g9
NtRp202
(dp203
g12
g13
sg14
S'Lohit Punjabi'
p204
sg16
I400
sg17
g13
sg18
g13
sg19
S'/usr/share/fonts/truetype/ttf-punjabi-fonts/lohit_pa.ttf'
p205
sg21
g22
sbag7
(g8
g9
NtRp206
(dp207
g12
g123
sg14
S'TlwgMono'
p208
sg16
I400
sg17
g13
sg18
g13
sg19
S'/usr/share/fonts/truetype/thai/TlwgMono-Oblique.ttf'
p209
sg21
g22
sbag7
(g8
g9
NtRp210
(dp211
g12
g13
sg14
S'Ume P Gothic S4'
p212
sg16
I400
sg17
g13
sg18
g13
sg19
S'/usr/share/fonts/truetype/fonts-horai-umefont/ume-pgs4.ttf'
p213
sg21
g22
sbag7
(g8
g9
NtRp214
(dp215
g12
g13
sg14
S'Meera'
p216
sg16
I400
sg17
g13
sg18
g13
sg19
S'/usr/share/fonts/truetype/ttf-indic-fonts-core/Meera_04.ttf'
p217
sg21
g22
sbag7
(g8
g9
NtRp218
(dp219
g12
g123
sg14
S'Loma'
p220
sg16
I400
sg17
g13
sg18
g13
sg19
S'/usr/share/fonts/truetype/thai/Loma-Oblique.ttf'
p221
sg21
g22
sbag7
(g8
g9
NtRp222
(dp223
g12
g13
sg14
S'Liberation Serif'
p224
sg16
I400
sg17
g13
sg18
g13
sg19
S'/usr/share/fonts/truetype/ttf-liberation/LiberationSerif-Regular.ttf'
p225
sg21
g22
sbag7
(g8
g9
NtRp226
(dp227
g12
g13
sg14
S'Georgia'
p228
sg16
I700
sg17
g13
sg18
g13
sg19
S'/usr/share/fonts/truetype/msttcorefonts/Georgia_Bold.ttf'
p229
sg21
g22
sbag7
(g8
g9
NtRp230
(dp231
g12
g13
sg14
S'Arial Black'
p232
sg16
I900
sg17
g13
sg18
g13
sg19
S'/usr/share/fonts/truetype/msttcorefonts/ariblk.ttf'
p233
sg21
g22
sbag7
(g8
g9
NtRp234
(dp235
g12
g13
sg14
S'FreeSerif'
p236
sg16
I700
sg17
g13
sg18
g13
sg19
S'/usr/share/fonts/truetype/freefont/FreeSerifBold.ttf'
p237
sg21
g22
sbag7
(g8
g9
NtRp238
(dp239
g12
g123
sg14
S'Umpush'
p240
sg16
I700
sg17
g13
sg18
g13
sg19
S'/usr/share/fonts/truetype/thai/Umpush-BoldOblique.ttf'
p241
sg21
g22
sbag7
(g8
g9
NtRp242
(dp243
g12
g29
sg14
S'Liberation Mono'
p244
sg16
I400
sg17
g13
sg18
g13
sg19
S'/usr/share/fonts/truetype/ttf-liberation/LiberationMono-Italic.ttf'
p245
sg21
g22
sbag7
(g8
g9
NtRp246
(dp247
g12
g13
sg14
S'DejaVu Serif'
p248
sg16
I700
sg17
g13
sg18
g13
sg19
S'/usr/share/fonts/truetype/ttf-dejavu/DejaVuSerif-Bold.ttf'
p249
sg21
g22
sbag7
(g8
g9
NtRp250
(dp251
g12
g13
sg14
S'Times New Roman'
p252
sg16
I700
sg17
g13
sg18
g13
sg19
S'/usr/share/fonts/truetype/msttcorefonts/timesbd.ttf'
p253
sg21
g22
sbag7
(g8
g9
NtRp254
(dp255
g12
g13
sg14
S'Georgia'
p256
sg16
I700
sg17
g13
sg18
g13
sg19
S'/usr/share/fonts/truetype/msttcorefonts/georgiab.ttf'
p257
sg21
g22
sbag7
(g8
g9
NtRp258
(dp259
g12
g29
sg14
S'DejaVu Serif'
p260
sg16
I400
sg17
g13
sg18
g13
sg19
S'/usr/share/fonts/truetype/ttf-dejavu/DejaVuSerif-Italic.ttf'
p261
sg21
g22
sbag7
(g8
g9
NtRp262
(dp263
g12
g123
sg14
S'FreeSans'
p264
sg16
I400
sg17
g13
sg18
g13
sg19
S'/usr/share/fonts/truetype/freefont/FreeSansOblique.ttf'
p265
sg21
g22
sbag7
(g8
g9
NtRp266
(dp267
g12
g13
sg14
S'Comic Sans MS'
p268
sg16
I700
sg17
g13
sg18
g13
sg19
S'/usr/share/fonts/truetype/msttcorefonts/Comic_Sans_MS_Bold.ttf'
p269
sg21
g22
sbag7
(g8
g9
NtRp270
(dp271
g12
g13
sg14
S'KacstOne'
p272
sg16
I400
sg17
g13
sg18
g13
sg19
S'/usr/share/fonts/truetype/ttf-kacst-one/KacstOne.ttf'
p273
sg21
g22
sbag7
(g8
g9
NtRp274
(dp275
g12
g13
sg14
S'TlwgMono'
p276
sg16
I700
sg17
g13
sg18
g13
sg19
S'/usr/share/fonts/truetype/thai/TlwgMono-Bold.ttf'
p277
sg21
g22
sbag7
(g8
g9
NtRp278
(dp279
g12
g13
sg14
S'Lohit Hindi'
p280
sg16
I400
sg17
g13
sg18
g13
sg19
S'/usr/share/fonts/truetype/ttf-indic-fonts-core/lohit_hi.ttf'
p281
sg21
g22
sbag7
(g8
g9
NtRp282
(dp283
g12
g13
sg14
S'Courier New'
p284
sg16
I700
sg17
g13
sg18
g13
sg19
S'/usr/share/fonts/truetype/msttcorefonts/Courier_New_Bold.ttf'
p285
sg21
g22
sbag7
(g8
g9
NtRp286
(dp287
g12
g29
sg14
S'Georgia'
p288
sg16
I700
sg17
g13
sg18
g13
sg19
S'/usr/share/fonts/truetype/msttcorefonts/Georgia_Bold_Italic.ttf'
p289
sg21
g22
sbag7
(g8
g9
NtRp290
(dp291
g12
g123
sg14
S'DejaVu Sans'
p292
sg16
I400
sg17
g13
sg18
g13
sg19
S'/usr/share/fonts/truetype/ttf-dejavu/DejaVuSans-Oblique.ttf'
p293
sg21
g22
sbag7
(g8
g9
NtRp294
(dp295
g12
g13
sg14
S'UnDotum'
p296
sg16
I700
sg17
g13
sg18
g13
sg19
S'/usr/share/fonts/truetype/unfonts/UnDotumBold.ttf'
p297
sg21
g22
sbag7
(g8
g9
NtRp298
(dp299
g12
g13
sg14
S'Norasi'
p300
sg16
I400
sg17
g13
sg18
g13
sg19
S'/usr/share/fonts/truetype/thai/Norasi.ttf'
p301
sg21
g22
sbag7
(g8
g9
NtRp302
(dp303
g12
g13
sg14
S'Ubuntu'
p304
sg16
I400
sg17
g13
sg18
g13
sg19
S'/usr/share/fonts/truetype/ubuntu-font-family/Ubuntu-R.ttf'
p305
sg21
g22
sbag7
(g8
g9
NtRp306
(dp307
g12
g29
sg14
S'Times New Roman'
p308
sg16
I700
sg17
g13
sg18
g13
sg19
S'/usr/share/fonts/truetype/msttcorefonts/Times_New_Roman_Bold_Italic.ttf'
p309
sg21
g22
sbag7
(g8
g9
NtRp310
(dp311
g12
g13
sg14
S'eufm10'
p312
sg16
I400
sg17
g13
sg18
g13
sg19
S'/usr/share/fonts/truetype/ttf-lyx/eufm10.ttf'
p313
sg21
g22
sbag7
(g8
g9
NtRp314
(dp315
g12
g123
sg14
S'DejaVu Sans'
p316
sg16
I700
sg17
g13
sg18
g13
sg19
S'/usr/share/fonts/truetype/ttf-dejavu/DejaVuSans-BoldOblique.ttf'
p317
sg21
g22
sbag7
(g8
g9
NtRp318
(dp319
g12
g29
sg14
S'Liberation Sans Narrow'
p320
sg16
I400
sg17
g119
sg18
g13
sg19
S'/usr/share/fonts/truetype/ttf-liberation/LiberationSansNarrow-Italic.ttf'
p321
sg21
g22
sbag7
(g8
g9
NtRp322
(dp323
g12
g29
sg14
S'Liberation Sans'
p324
sg16
I400
sg17
g13
sg18
g13
sg19
S'/usr/share/fonts/truetype/ttf-liberation/LiberationSans-Italic.ttf'
p325
sg21
g22
sbag7
(g8
g9
NtRp326
(dp327
g12
g13
sg14
S'wasy10'
p328
sg16
I400
sg17
g13
sg18
g13
sg19
S'/usr/share/fonts/truetype/ttf-lyx/wasy10.ttf'
p329
sg21
g22
sbag7
(g8
g9
NtRp330
(dp331
g12
g13
sg14
S'Impact'
p332
sg16
I400
sg17
g13
sg18
g13
sg19
S'/usr/share/fonts/truetype/msttcorefonts/Impact.ttf'
p333
sg21
g22
sbag7
(g8
g9
NtRp334
(dp335
g12
g123
sg14
S'DejaVu Sans'
p336
sg16
I700
sg17
g119
sg18
g13
sg19
S'/usr/share/fonts/truetype/ttf-dejavu/DejaVuSansCondensed-BoldOblique.ttf'
p337
sg21
g22
sbag7
(g8
g9
NtRp338
(dp339
g12
g13
sg14
S'Georgia'
p340
sg16
I400
sg17
g13
sg18
g13
sg19
S'/usr/share/fonts/truetype/msttcorefonts/Georgia.ttf'
p341
sg21
g22
sbag7
(g8
g9
NtRp342
(dp343
g12
g13
sg14
S'DejaVu Sans'
p344
sg16
I700
sg17
g119
sg18
g13
sg19
S'/usr/share/fonts/truetype/ttf-dejavu/DejaVuSansCondensed-Bold.ttf'
p345
sg21
g22
sbag7
(g8
g9
NtRp346
(dp347
g12
g13
sg14
S'Sawasdee'
p348
sg16
I700
sg17
g13
sg18
g13
sg19
S'/usr/share/fonts/truetype/thai/Sawasdee-Bold.ttf'
p349
sg21
g22
sbag7
(g8
g9
NtRp350
(dp351
g12
g13
sg14
S'Ume Gothic S4'
p352
sg16
I400
sg17
g13
sg18
g13
sg19
S'/usr/share/fonts/truetype/fonts-horai-umefont/ume-tgs4.ttf'
p353
sg21
g22
sbag7
(g8
g9
NtRp354
(dp355
g12
g13
sg14
S'msbm10'
p356
sg16
I400
sg17
g13
sg18
g13
sg19
S'/usr/share/fonts/truetype/ttf-lyx/msbm10.ttf'
p357
sg21
g22
sbag7
(g8
g9
NtRp358
(dp359
g12
g13
sg14
S'Droid Sans Thai'
p360
sg16
I400
sg17
g13
sg18
g13
sg19
S'/usr/share/fonts/truetype/ttf-droid/DroidSansThai.ttf'
p361
sg21
g22
sbag7
(g8
g9
NtRp362
(dp363
g12
g13
sg14
S'Andale Mono'
p364
sg16
I400
sg17
g13
sg18
g13
sg19
S'/usr/share/fonts/truetype/msttcorefonts/andalemo.ttf'
p365
sg21
g22
sbag7
(g8
g9
NtRp366
(dp367
g12
g13
sg14
S'Waree'
p368
sg16
I400
sg17
g13
sg18
g13
sg19
S'/usr/share/fonts/truetype/thai/Waree.ttf'
p369
sg21
g22
sbag7
(g8
g9
NtRp370
(dp371
g12
g29
sg14
S'Droid Serif'
p372
sg16
I700
sg17
g13
sg18
g13
sg19
S'/usr/share/fonts/truetype/ttf-droid/DroidSerif-BoldItalic.ttf'
p373
sg21
g22
sbag7
(g8
g9
NtRp374
(dp375
g12
g29
sg14
S'Arial'
p376
sg16
I700
sg17
g13
sg18
g13
sg19
S'/usr/share/fonts/truetype/msttcorefonts/arialbi.ttf'
p377
sg21
g22
sbag7
(g8
g9
NtRp378
(dp379
g12
g13
sg14
S'Verdana'
p380
sg16
I400
sg17
g13
sg18
g13
sg19
S'/usr/share/fonts/truetype/msttcorefonts/Verdana.ttf'
p381
sg21
g22
sbag7
(g8
g9
NtRp382
(dp383
g12
g13
sg14
S'Ume Gothic C5'
p384
sg16
I400
sg17
g13
sg18
g13
sg19
S'/usr/share/fonts/truetype/fonts-horai-umefont/ume-tgc5.ttf'
p385
sg21
g22
sbag7
(g8
g9
NtRp386
(dp387
g12
g13
sg14
S'DejaVu Sans Mono'
p388
sg16
I700
sg17
g13
sg18
g13
sg19
S'/usr/share/fonts/truetype/ttf-dejavu/DejaVuSansMono-Bold.ttf'
p389
sg21
g22
sbag7
(g8
g9
NtRp390
(dp391
g12
g123
sg14
S'Sawasdee'
p392
sg16
I700
sg17
g13
sg18
g13
sg19
S'/usr/share/fonts/truetype/thai/Sawasdee-BoldOblique.ttf'
p393
sg21
g22
sbag7
(g8
g9
NtRp394
(dp395
g12
g13
sg14
S'Pothana2000'
p396
sg16
I400
sg17
g13
sg18
g13
sg19
S'/usr/share/fonts/truetype/ttf-indic-fonts-core/Pothana2000.ttf'
p397
sg21
g22
sbag7
(g8
g9
NtRp398
(dp399
g12
g123
sg14
S'Waree'
p400
sg16
I700
sg17
g13
sg18
g13
sg19
S'/usr/share/fonts/truetype/thai/Waree-BoldOblique.ttf'
p401
sg21
g22
sbag7
(g8
g9
NtRp402
(dp403
g12
g13
sg14
S'TlwgTypewriter'
p404
sg16
I400
sg17
g13
sg18
g13
sg19
S'/usr/share/fonts/truetype/thai/TlwgTypewriter.ttf'
p405
sg21
g22
sbag7
(g8
g9
NtRp406
(dp407
g12
g123
sg14
S'DejaVu Sans'
p408
sg16
I400
sg17
g119
sg18
g13
sg19
S'/usr/share/fonts/truetype/ttf-dejavu/DejaVuSansCondensed-Oblique.ttf'
p409
sg21
g22
sbag7
(g8
g9
NtRp410
(dp411
g12
g13
sg14
S'Courier New'
p412
sg16
I400
sg17
g13
sg18
g13
sg19
S'/usr/share/fonts/truetype/msttcorefonts/cour.ttf'
p413
sg21
g22
sbag7
(g8
g9
NtRp414
(dp415
g12
g13
sg14
S'ori1Uni'
p416
sg16
I500
sg17
g13
sg18
g13
sg19
S'/usr/share/fonts/truetype/ttf-indic-fonts-core/utkal.ttf'
p417
sg21
g22
sbag7
(g8
g9
NtRp418
(dp419
g12
g29
sg14
S'Liberation Serif'
p420
sg16
I400
sg17
g13
sg18
g13
sg19
S'/usr/share/fonts/truetype/ttf-liberation/LiberationSerif-Italic.ttf'
p421
sg21
g22
sbag7
(g8
g9
NtRp422
(dp423
g12
g29
sg14
S'DejaVu Serif'
p424
sg16
I700
sg17
g13
sg18
g13
sg19
S'/usr/share/fonts/truetype/ttf-dejavu/DejaVuSerif-BoldItalic.ttf'
p425
sg21
g22
sbag7
(g8
g9
NtRp426
(dp427
g12
g13
sg14
S'Ume P Gothic O5'
p428
sg16
I400
sg17
g13
sg18
g13
sg19
S'/usr/share/fonts/truetype/fonts-horai-umefont/ume-pgo5.ttf'
p429
sg21
g22
sbag7
(g8
g9
NtRp430
(dp431
g12
g13
sg14
S'Trebuchet MS'
p432
sg16
I400
sg17
g13
sg18
g13
sg19
S'/usr/share/fonts/truetype/msttcorefonts/Trebuchet_MS.ttf'
p433
sg21
g22
sbag7
(g8
g9
NtRp434
(dp435
g12
g123
sg14
S'TlwgMono'
p436
sg16
I700
sg17
g13
sg18
g13
sg19
S'/usr/share/fonts/truetype/thai/TlwgMono-BoldOblique.ttf'
p437
sg21
g22
sbag7
(g8
g9
NtRp438
(dp439
g12
g123
sg14
S'Tlwg Typist'
p440
sg16
I400
sg17
g13
sg18
g13
sg19
S'/usr/share/fonts/truetype/thai/TlwgTypist-Oblique.ttf'
p441
sg21
g22
sbag7
(g8
g9
NtRp442
(dp443
g12
g29
sg14
S'Liberation Sans Narrow'
p444
sg16
I700
sg17
g119
sg18
g13
sg19
S'/usr/share/fonts/truetype/ttf-liberation/LiberationSansNarrow-BoldItalic.ttf'
p445
sg21
g22
sbag7
(g8
g9
NtRp446
(dp447
g12
g13
sg14
S'Kedage'
p448
sg16
I700
sg17
g13
sg18
g13
sg19
S'/usr/share/fonts/truetype/ttf-indic-fonts-core/Kedage-b.ttf'
p449
sg21
g22
sbag7
(g8
g9
NtRp450
(dp451
g12
g13
sg14
S'DejaVu Serif'
p452
sg16
I700
sg17
g119
sg18
g13
sg19
S'/usr/share/fonts/truetype/ttf-dejavu/DejaVuSerifCondensed-Bold.ttf'
p453
sg21
g22
sbag7
(g8
g9
NtRp454
(dp455
g12
g13
sg14
S'Ubuntu Mono'
p456
sg16
I400
sg17
g13
sg18
g13
sg19
S'/usr/share/fonts/truetype/ubuntu-font-family/UbuntuMono-R.ttf'
p457
sg21
g22
sbag7
(g8
g9
NtRp458
(dp459
g12
g29
sg14
S'Trebuchet MS'
p460
sg16
I400
sg17
g13
sg18
g13
sg19
S'/usr/share/fonts/truetype/msttcorefonts/Trebuchet_MS_Italic.ttf'
p461
sg21
g22
sbag7
(g8
g9
NtRp462
(dp463
g12
g13
sg14
S'Liberation Serif'
p464
sg16
I700
sg17
g13
sg18
g13
sg19
S'/usr/share/fonts/truetype/ttf-liberation/LiberationSerif-Bold.ttf'
p465
sg21
g22
sbag7
(g8
g9
NtRp466
(dp467
g12
g13
sg14
S'Courier New'
p468
sg16
I400
sg17
g13
sg18
g13
sg19
S'/usr/share/fonts/truetype/msttcorefonts/Courier_New.ttf'
p469
sg21
g22
sbag7
(g8
g9
NtRp470
(dp471
g12
g13
sg14
S'Comic Sans MS'
p472
sg16
I700
sg17
g13
sg18
g13
sg19
S'/usr/share/fonts/truetype/msttcorefonts/comicbd.ttf'
p473
sg21
g22
sbag7
(g8
g9
NtRp474
(dp475
g12
g13
sg14
S'Tlwg Typist'
p476
sg16
I700
sg17
g13
sg18
g13
sg19
S'/usr/share/fonts/truetype/thai/TlwgTypist-Bold.ttf'
p477
sg21
g22
sbag7
(g8
g9
NtRp478
(dp479
g12
g13
sg14
S'Arial'
p480
sg16
I400
sg17
g13
sg18
g13
sg19
S'/usr/share/fonts/truetype/msttcorefonts/Arial.ttf'
p481
sg21
g22
sbag7
(g8
g9
NtRp482
(dp483
g12
g29
sg14
S'Liberation Mono'
p484
sg16
I700
sg17
g13
sg18
g13
sg19
S'/usr/share/fonts/truetype/ttf-liberation/LiberationMono-BoldItalic.ttf'
p485
sg21
g22
sbag7
(g8
g9
NtRp486
(dp487
g12
g13
sg14
S'Ume Gothic C4'
p488
sg16
I400
sg17
g13
sg18
g13
sg19
S'/usr/share/fonts/truetype/fonts-horai-umefont/ume-tgc4.ttf'
p489
sg21
g22
sbag7
(g8
g9
NtRp490
(dp491
g12
g29
sg14
S'Courier New'
p492
sg16
I700
sg17
g13
sg18
g13
sg19
S'/usr/share/fonts/truetype/msttcorefonts/courbi.ttf'
p493
sg21
g22
sbag7
(g8
g9
NtRp494
(dp495
g12
g13
sg14
S'Times New Roman'
p496
sg16
I500
sg17
g13
sg18
g13
sg19
S'/usr/share/fonts/truetype/msttcorefonts/times.ttf'
p497
sg21
g22
sbag7
(g8
g9
NtRp498
(dp499
g12
g13
sg14
S'TakaoPGothic'
p500
sg16
I400
sg17
g13
sg18
g13
sg19
S'/usr/share/fonts/truetype/takao/TakaoPGothic.ttf'
p501
sg21
g22
sbag7
(g8
g9
NtRp502
(dp503
g12
g29
sg14
S'Verdana'
p504
sg16
I400
sg17
g13
sg18
g13
sg19
S'/usr/share/fonts/truetype/msttcorefonts/Verdana_Italic.ttf'
p505
sg21
g22
sbag7
(g8
g9
NtRp506
(dp507
g12
g29
sg14
S'Liberation Sans'
p508
sg16
I700
sg17
g13
sg18
g13
sg19
S'/usr/share/fonts/truetype/ttf-liberation/LiberationSans-BoldItalic.ttf'
p509
sg21
g22
sbag7
(g8
g9
NtRp510
(dp511
g12
g13
sg14
S'Droid Sans Arabic'
p512
sg16
I400
sg17
g13
sg18
g13
sg19
S'/usr/share/fonts/truetype/ttf-droid/DroidSansArabic.ttf'
p513
sg21
g22
sbag7
(g8
g9
NtRp514
(dp515
g12
g13
sg14
S'Mallige'
p516
sg16
I400
sg17
g13
sg18
g13
sg19
S'/usr/share/fonts/truetype/ttf-indic-fonts-core/Malige-n.ttf'
p517
sg21
g22
sbag7
(g8
g9
NtRp518
(dp519
g12
g13
sg14
S'Georgia'
p520
sg16
I400
sg17
g13
sg18
g13
sg19
S'/usr/share/fonts/truetype/msttcorefonts/georgia.ttf'
p521
sg21
g22
sbag7
(g8
g9
NtRp522
(dp523
g12
g13
sg14
S'Ume P Gothic C4'
p524
sg16
I400
sg17
g13
sg18
g13
sg19
S'/usr/share/fonts/truetype/fonts-horai-umefont/ume-pgc4.ttf'
p525
sg21
g22
sbag7
(g8
g9
NtRp526
(dp527
g12
g13
sg14
S'Trebuchet MS'
p528
sg16
I400
sg17
g13
sg18
g13
sg19
S'/usr/share/fonts/truetype/msttcorefonts/trebuc.ttf'
p529
sg21
g22
sbag7
(g8
g9
NtRp530
(dp531
g12
g13
sg14
S'DejaVu Sans'
p532
sg16
I400
sg17
g13
sg18
g13
sg19
S'/usr/share/fonts/truetype/ttf-dejavu/DejaVuSans.ttf'
p533
sg21
g22
sbag7
(g8
g9
NtRp534
(dp535
g12
g13
sg14
S'FreeSans'
p536
sg16
I700
sg17
g13
sg18
g13
sg19
S'/usr/share/fonts/truetype/freefont/FreeSansBold.ttf'
p537
sg21
g22
sbag7
(g8
g9
NtRp538
(dp539
g12
g13
sg14
S'Loma'
p540
sg16
I700
sg17
g13
sg18
g13
sg19
S'/usr/share/fonts/truetype/thai/Loma-Bold.ttf'
p541
sg21
g22
sbag7
(g8
g9
NtRp542
(dp543
g12
g13
sg14
S'Lohit Bengali'
p544
sg16
I400
sg17
g13
sg18
g13
sg19
S'/usr/share/fonts/truetype/ttf-indic-fonts-core/lohit_bn.ttf'
p545
sg21
g22
sbag7
(g8
g9
NtRp546
(dp547
g12
g13
sg14
S'Sawasdee'
p548
sg16
I400
sg17
g13
sg18
g13
sg19
S'/usr/share/fonts/truetype/thai/Sawasdee.ttf'
p549
sg21
g22
sbag7
(g8
g9
NtRp550
(dp551
g12
g13
sg14
S'Ume Gothic'
p552
sg16
I400
sg17
g13
sg18
g13
sg19
S'/usr/share/fonts/truetype/fonts-horai-umefont/ume-tgo4.ttf'
p553
sg21
g22
sbag7
(g8
g9
NtRp554
(dp555
g12
g13
sg14
S'Saab'
p556
sg16
I400
sg17
g13
sg18
g13
sg19
S'/usr/share/fonts/truetype/ttf-punjabi-fonts/Saab.ttf'
p557
sg21
g22
sbag7
(g8
g9
NtRp558
(dp559
g12
g13
sg14
S'DejaVu Sans'
p560
sg16
I700
sg17
g13
sg18
g13
sg19
S'/usr/share/fonts/truetype/ttf-dejavu/DejaVuSans-Bold.ttf'
p561
sg21
g22
sbag7
(g8
g9
NtRp562
(dp563
g12
g13
sg14
S'Ume P Gothic C5'
p564
sg16
I400
sg17
g13
sg18
g13
sg19
S'/usr/share/fonts/truetype/fonts-horai-umefont/ume-pgc5.ttf'
p565
sg21
g22
sbag7
(g8
g9
NtRp566
(dp567
g12
g13
sg14
S'DejaVu Sans'
p568
sg16
I200
sg17
g13
sg18
g13
sg19
S'/usr/share/fonts/truetype/ttf-dejavu/DejaVuSans-ExtraLight.ttf'
p569
sg21
g22
sbag7
(g8
g9
NtRp570
(dp571
g12
g29
sg14
S'Trebuchet MS'
p572
sg16
I400
sg17
g13
sg18
g13
sg19
S'/usr/share/fonts/truetype/msttcorefonts/trebucit.ttf'
p573
sg21
g22
sbag7
(g8
g9
NtRp574
(dp575
g12
g13
sg14
S'Verdana'
p576
sg16
I400
sg17
g13
sg18
g13
sg19
S'/usr/share/fonts/truetype/msttcorefonts/verdana.ttf'
p577
sg21
g22
sbag7
(g8
g9
NtRp578
(dp579
g12
g29
sg14
S'Verdana'
p580
sg16
I700
sg17
g13
sg18
g13
sg19
S'/usr/share/fonts/truetype/msttcorefonts/verdanaz.ttf'
p581
sg21
g22
sbag7
(g8
g9
NtRp582
(dp583
g12
g13
sg14
S'Ume P Mincho'
p584
sg16
I400
sg17
g13
sg18
g13
sg19
S'/usr/share/fonts/truetype/fonts-horai-umefont/ume-pmo3.ttf'
p585
sg21
g22
sbag7
(g8
g9
NtRp586
(dp587
g12
g13
sg14
S'Droid Sans'
p588
sg16
I400
sg17
g13
sg18
g13
sg19
S'/usr/share/fonts/truetype/ttf-droid/DroidSans.ttf'
p589
sg21
g22
sbag7
(g8
g9
NtRp590
(dp591
g12
g29
sg14
S'Georgia'
p592
sg16
I400
sg17
g13
sg18
g13
sg19
S'/usr/share/fonts/truetype/msttcorefonts/georgiai.ttf'
p593
sg21
g22
sbag7
(g8
g9
NtRp594
(dp595
g12
g13
sg14
S'Andale Mono'
p596
sg16
I400
sg17
g13
sg18
g13
sg19
S'/usr/share/fonts/truetype/msttcorefonts/Andale_Mono.ttf'
p597
sg21
g22
sbag7
(g8
g9
NtRp598
(dp599
g12
g29
sg14
S'Georgia'
p600
sg16
I400
sg17
g13
sg18
g13
sg19
S'/usr/share/fonts/truetype/msttcorefonts/Georgia_Italic.ttf'
p601
sg21
g22
sbag7
(g8
g9
NtRp602
(dp603
g12
g29
sg14
S'Ubuntu'
p604
sg16
I200
sg17
g13
sg18
g13
sg19
S'/usr/share/fonts/truetype/ubuntu-font-family/Ubuntu-LI.ttf'
p605
sg21
g22
sbag7
(g8
g9
NtRp606
(dp607
g12
g13
sg14
S'Droid Sans'
p608
sg16
I700
sg17
g13
sg18
g13
sg19
S'/usr/share/fonts/truetype/ttf-droid/DroidSans-Bold.ttf'
p609
sg21
g22
sbag7
(g8
g9
NtRp610
(dp611
g12
g123
sg14
S'TlwgTypewriter'
p612
sg16
I700
sg17
g13
sg18
g13
sg19
S'/usr/share/fonts/truetype/thai/TlwgTypewriter-BoldOblique.ttf'
p613
sg21
g22
sbag7
(g8
g9
NtRp614
(dp615
g12
g13
sg14
S'Garuda'
p616
sg16
I700
sg17
g13
sg18
g13
sg19
S'/usr/share/fonts/truetype/thai/Garuda-Bold.ttf'
p617
sg21
g22
sbag7
(g8
g9
NtRp618
(dp619
g12
g13
sg14
S'Droid Serif'
p620
sg16
I400
sg17
g13
sg18
g13
sg19
S'/usr/share/fonts/truetype/ttf-droid/DroidSerif-Regular.ttf'
p621
sg21
g22
sbag7
(g8
g9
NtRp622
(dp623
g12
g29
sg14
S'Courier New'
p624
sg16
I400
sg17
g13
sg18
g13
sg19
S'/usr/share/fonts/truetype/msttcorefonts/Courier_New_Italic.ttf'
p625
sg21
g22
sbag7
(g8
g9
NtRp626
(dp627
g12
g13
sg14
S'Ume Gothic O5'
p628
sg16
I400
sg17
g13
sg18
g13
sg19
S'/usr/share/fonts/truetype/fonts-horai-umefont/ume-tgo5.ttf'
p629
sg21
g22
sbag7
(g8
g9
NtRp630
(dp631
g12
g29
sg14
S'Courier New'
p632
sg16
I400
sg17
g13
sg18
g13
sg19
S'/usr/share/fonts/truetype/msttcorefonts/couri.ttf'
p633
sg21
g22
sbag7
(g8
g9
NtRp634
(dp635
g12
g13
sg14
S'Rekha'
p636
sg16
I400
sg17
g13
sg18
g13
sg19
S'/usr/share/fonts/truetype/ttf-indic-fonts-core/Rekha.ttf'
p637
sg21
g22
sbag7
(g8
g9
NtRp638
(dp639
g12
g13
sg14
S'Kinnari'
p640
sg16
I700
sg17
g13
sg18
g13
sg19
S'/usr/share/fonts/truetype/thai/Kinnari-Bold.ttf'
p641
sg21
g22
sbag7
(g8
g9
NtRp642
(dp643
g12
g29
sg14
S'DejaVu Serif'
p644
sg16
I700
sg17
g119
sg18
g13
sg19
S'/usr/share/fonts/truetype/ttf-dejavu/DejaVuSerifCondensed-BoldItalic.ttf'
p645
sg21
g22
sbag7
(g8
g9
NtRp646
(dp647
g12
g13
sg14
S'Ubuntu Mono'
p648
sg16
I700
sg17
g13
sg18
g13
sg19
S'/usr/share/fonts/truetype/ubuntu-font-family/UbuntuMono-B.ttf'
p649
sg21
g22
sbag7
(g8
g9
NtRp650
(dp651
g12
g13
sg14
S'esint10'
p652
sg16
I400
sg17
g13
sg18
g13
sg19
S'/usr/share/fonts/truetype/ttf-lyx/esint10.ttf'
p653
sg21
g22
sbag7
(g8
g9
NtRp654
(dp655
g12
g13
sg14
S'TlwgMono'
p656
sg16
I400
sg17
g13
sg18
g13
sg19
S'/usr/share/fonts/truetype/thai/TlwgMono.ttf'
p657
sg21
g22
sbag7
(g8
g9
NtRp658
(dp659
g12
g123
sg14
S'Umpush'
p660
sg16
I200
sg17
g13
sg18
g13
sg19
S'/usr/share/fonts/truetype/thai/Umpush-LightOblique.ttf'
p661
sg21
g22
sbag7
(g8
g9
NtRp662
(dp663
g12
g29
sg14
S'Verdana'
p664
sg16
I700
sg17
g13
sg18
g13
sg19
S'/usr/share/fonts/truetype/msttcorefonts/Verdana_Bold_Italic.ttf'
p665
sg21
g22
sbag7
(g8
g9
NtRp666
(dp667
g12
g13
sg14
S'UnBatang'
p668
sg16
I400
sg17
g13
sg18
g13
sg19
S'/usr/share/fonts/truetype/unfonts/UnBatang.ttf'
p669
sg21
g22
sbag7
(g8
g9
NtRp670
(dp671
g12
g13
sg14
S'gargi'
p672
sg16
I400
sg17
g13
sg18
g13
sg19
S'/usr/share/fonts/truetype/ttf-indic-fonts-core/gargi.ttf'
p673
sg21
g22
sbag7
(g8
g9
NtRp674
(dp675
g12
g13
sg14
S'OpenSymbol'
p676
sg16
I400
sg17
g13
sg18
g13
sg19
S'/usr/share/fonts/truetype/openoffice/opens___.ttf'
p677
sg21
g22
sbag7
(g8
g9
NtRp678
(dp679
g12
g29
sg14
S'Ubuntu'
p680
sg16
I700
sg17
g13
sg18
g13
sg19
S'/usr/share/fonts/truetype/ubuntu-font-family/Ubuntu-BI.ttf'
p681
sg21
g22
sbag7
(g8
g9
NtRp682
(dp683
g12
g13
sg14
S'Khmer OS System'
p684
sg16
I400
sg17
g13
sg18
g13
sg19
S'/usr/share/fonts/truetype/ttf-khmeros-core/KhmerOSsys.ttf'
p685
sg21
g22
sbag7
(g8
g9
NtRp686
(dp687
g12
g29
sg14
S'Kinnari'
p688
sg16
I400
sg17
g13
sg18
g13
sg19
S'/usr/share/fonts/truetype/thai/Kinnari-Italic.ttf'
p689
sg21
g22
sbag7
(g8
g9
NtRp690
(dp691
g12
g29
sg14
S'DejaVu Serif'
p692
sg16
I400
sg17
g119
sg18
g13
sg19
S'/usr/share/fonts/truetype/ttf-dejavu/DejaVuSerifCondensed-Italic.ttf'
p693
sg21
g22
sbag7
(g8
g9
NtRp694
(dp695
g12
g13
sg14
S'Arial Black'
p696
sg16
I900
sg17
g13
sg18
g13
sg19
S'/usr/share/fonts/truetype/msttcorefonts/Arial_Black.ttf'
p697
sg21
g22
sbag7
(g8
g9
NtRp698
(dp699
g12
g13
sg14
S'Webdings'
p700
sg16
I400
sg17
g13
sg18
g13
sg19
S'/usr/share/fonts/truetype/msttcorefonts/Webdings.ttf'
p701
sg21
g22
sbag7
(g8
g9
NtRp702
(dp703
g12
g13
sg14
S'Mukti Narrow'
p704
sg16
I700
sg17
g13
sg18
g13
sg19
S'/usr/share/fonts/truetype/ttf-indic-fonts-core/MuktiNarrowBold.ttf'
p705
sg21
g22
sbag7
(g8
g9
NtRp706
(dp707
g12
g13
sg14
S'Ume P Mincho S3'
p708
sg16
I400
sg17
g13
sg18
g13
sg19
S'/usr/share/fonts/truetype/fonts-horai-umefont/ume-pms3.ttf'
p709
sg21
g22
sbag7
(g8
g9
NtRp710
(dp711
g12
g13
sg14
S'Verdana'
p712
sg16
I700
sg17
g13
sg18
g13
sg19
S'/usr/share/fonts/truetype/msttcorefonts/Verdana_Bold.ttf'
p713
sg21
g22
sbag7
(g8
g9
NtRp714
(dp715
g12
g29
sg14
S'Kinnari'
p716
sg16
I700
sg17
g13
sg18
g13
sg19
S'/usr/share/fonts/truetype/thai/Kinnari-BoldItalic.ttf'
p717
sg21
g22
sbag7
(g8
g9
NtRp718
(dp719
g12
g13
sg14
S'Ubuntu'
p720
sg16
I700
sg17
g13
sg18
g13
sg19
S'/usr/share/fonts/truetype/ubuntu-font-family/Ubuntu-B.ttf'
p721
sg21
g22
sbag7
(g8
g9
NtRp722
(dp723
g12
g123
sg14
S'FreeSans'
p724
sg16
I700
sg17
g13
sg18
g13
sg19
S'/usr/share/fonts/truetype/freefont/FreeSansBoldOblique.ttf'
p725
sg21
g22
sbag7
(g8
g9
NtRp726
(dp727
g12
g13
sg14
S'Droid Serif'
p728
sg16
I700
sg17
g13
sg18
g13
sg19
S'/usr/share/fonts/truetype/ttf-droid/DroidSerif-Bold.ttf'
p729
sg21
g22
sbag7
(g8
g9
NtRp730
(dp731
g12
g13
sg14
S'Ume P Gothic'
p732
sg16
I400
sg17
g13
sg18
g13
sg19
S'/usr/share/fonts/truetype/fonts-horai-umefont/ume-pgo4.ttf'
p733
sg21
g22
sbag7
(g8
g9
NtRp734
(dp735
g12
g13
sg14
S'Kinnari'
p736
sg16
I400
sg17
g13
sg18
g13
sg19
S'/usr/share/fonts/truetype/thai/Kinnari.ttf'
p737
sg21
g22
sbag7
(g8
g9
NtRp738
(dp739
g12
g29
sg14
S'Arial'
p740
sg16
I400
sg17
g13
sg18
g13
sg19
S'/usr/share/fonts/truetype/msttcorefonts/Arial_Italic.ttf'
p741
sg21
g22
sbag7
(g8
g9
NtRp742
(dp743
g12
g123
sg14
S'FreeMono'
p744
sg16
I700
sg17
g13
sg18
g13
sg19
S'/usr/share/fonts/truetype/freefont/FreeMonoBoldOblique.ttf'
p745
sg21
g22
sbag7
(g8
g9
NtRp746
(dp747
g12
g13
sg14
S'msam10'
p748
sg16
I400
sg17
g13
sg18
g13
sg19
S'/usr/share/fonts/truetype/ttf-lyx/msam10.ttf'
p749
sg21
g22
sbag7
(g8
g9
NtRp750
(dp751
g12
g13
sg14
S'Tlwg Typist'
p752
sg16
I400
sg17
g13
sg18
g13
sg19
S'/usr/share/fonts/truetype/thai/TlwgTypist.ttf'
p753
sg21
g22
sbag7
(g8
g9
NtRp754
(dp755
g12
g13
sg14
S'Ume Mincho'
p756
sg16
I400
sg17
g13
sg18
g13
sg19
S'/usr/share/fonts/truetype/fonts-horai-umefont/ume-tmo3.ttf'
p757
sg21
g22
sbag7
(g8
g9
NtRp758
(dp759
g12
g123
sg14
S'Norasi'
p760
sg16
I400
sg17
g13
sg18
g13
sg19
S'/usr/share/fonts/truetype/thai/Norasi-Oblique.ttf'
p761
sg21
g22
sbag7
(g8
g9
NtRp762
(dp763
g12
g123
sg14
S'Kinnari'
p764
sg16
I400
sg17
g13
sg18
g13
sg19
S'/usr/share/fonts/truetype/thai/Kinnari-Oblique.ttf'
p765
sg21
g22
sbag7
(g8
g9
NtRp766
(dp767
g12
g123
sg14
S'Garuda'
p768
sg16
I700
sg17
g13
sg18
g13
sg19
S'/usr/share/fonts/truetype/thai/Garuda-BoldOblique.ttf'
p769
sg21
g22
sbag7
(g8
g9
NtRp770
(dp771
g12
g29
sg14
S'Arial'
p772
sg16
I400
sg17
g13
sg18
g13
sg19
S'/usr/share/fonts/truetype/msttcorefonts/ariali.ttf'
p773
sg21
g22
sbag7
(g8
g9
NtRp774
(dp775
g12
g13
sg14
S'Droid Sans Japanese'
p776
sg16
I400
sg17
g13
sg18
g13
sg19
S'/usr/share/fonts/truetype/ttf-droid/DroidSansJapanese.ttf'
p777
sg21
g22
sbag7
(g8
g9
NtRp778
(dp779
g12
g29
sg14
S'FreeSerif'
p780
sg16
I700
sg17
g13
sg18
g13
sg19
S'/usr/share/fonts/truetype/freefont/FreeSerifBoldItalic.ttf'
p781
sg21
g22
sbag7
(g8
g9
NtRp782
(dp783
g12
g13
sg14
S'Tlwg Typo'
p784
sg16
I400
sg17
g13
sg18
g13
sg19
S'/usr/share/fonts/truetype/thai/TlwgTypo.ttf'
p785
sg21
g22
sbag7
(g8
g9
NtRp786
(dp787
g12
g29
sg14
S'Trebuchet MS'
p788
sg16
I700
sg17
g13
sg18
g13
sg19
S'/usr/share/fonts/truetype/msttcorefonts/trebucbi.ttf'
p789
sg21
g22
sbag7
(g8
g9
NtRp790
(dp791
g12
g13
sg14
S'Purisa'
p792
sg16
I400
sg17
g13
sg18
g13
sg19
S'/usr/share/fonts/truetype/thai/Purisa.ttf'
p793
sg21
g22
sbag7
(g8
g9
NtRp794
(dp795
g12
g13
sg14
S'Vemana2000'
p796
sg16
I400
sg17
g13
sg18
g13
sg19
S'/usr/share/fonts/truetype/ttf-indic-fonts-core/Vemana.ttf'
p797
sg21
g22
sbag7
(g8
g9
NtRp798
(dp799
g12
g13
sg14
S'Loma'
p800
sg16
I400
sg17
g13
sg18
g13
sg19
S'/usr/share/fonts/truetype/thai/Loma.ttf'
p801
sg21
g22
sbag7
(g8
g9
NtRp802
(dp803
g12
g13
sg14
S'Droid Sans Hebrew'
p804
sg16
I400
sg17
g13
sg18
g13
sg19
S'/usr/share/fonts/truetype/ttf-droid/DroidSansHebrew.ttf'
p805
sg21
g22
sbag7
(g8
g9
NtRp806
(dp807
g12
g13
sg14
S'Waree'
p808
sg16
I700
sg17
g13
sg18
g13
sg19
S'/usr/share/fonts/truetype/thai/Waree-Bold.ttf'
p809
sg21
g22
sbag7
(g8
g9
NtRp810
(dp811
g12
g29
sg14
S'Times New Roman'
p812
sg16
I500
sg17
g13
sg18
g13
sg19
S'/usr/share/fonts/truetype/msttcorefonts/timesi.ttf'
p813
sg21
g22
sbag7
(g8
g9
NtRp814
(dp815
g12
g29
sg14
S'Times New Roman'
p816
sg16
I500
sg17
g13
sg18
g13
sg19
S'/usr/share/fonts/truetype/msttcorefonts/Times_New_Roman_Italic.ttf'
p817
sg21
g22
sbag7
(g8
g9
NtRp818
(dp819
g12
g13
sg14
S'Kedage'
p820
sg16
I400
sg17
g13
sg18
g13
sg19
S'/usr/share/fonts/truetype/ttf-indic-fonts-core/Kedage-n.ttf'
p821
sg21
g22
sbag7
(g8
g9
NtRp822
(dp823
g12
g13
sg14
S'Liberation Sans Narrow'
p824
sg16
I700
sg17
g119
sg18
g13
sg19
S'/usr/share/fonts/truetype/ttf-liberation/LiberationSansNarrow-Bold.ttf'
p825
sg21
g22
sbag7
(g8
g9
NtRp826
(dp827
g12
g13
sg14
S'Lohit Tamil'
p828
sg16
I400
sg17
g13
sg18
g13
sg19
S'/usr/share/fonts/truetype/ttf-indic-fonts-core/lohit_ta.ttf'
p829
sg21
g22
sbag7
(g8
g9
NtRp830
(dp831
g12
g13
sg14
S'Ubuntu Condensed'
p832
sg16
I400
sg17
g119
sg18
g13
sg19
S'/usr/share/fonts/truetype/ubuntu-font-family/Ubuntu-C.ttf'
p833
sg21
g22
sbag7
(g8
g9
NtRp834
(dp835
g12
g29
sg14
S'Georgia'
p836
sg16
I700
sg17
g13
sg18
g13
sg19
S'/usr/share/fonts/truetype/msttcorefonts/georgiaz.ttf'
p837
sg21
g22
sbag7
(g8
g9
NtRp838
(dp839
g12
g29
sg14
S'Courier New'
p840
sg16
I700
sg17
g13
sg18
g13
sg19
S'/usr/share/fonts/truetype/msttcorefonts/Courier_New_Bold_Italic.ttf'
p841
sg21
g22
sbag7
(g8
g9
NtRp842
(dp843
g12
g29
sg14
S'Ubuntu'
p844
sg16
I400
sg17
g13
sg18
g13
sg19
S'/usr/share/fonts/truetype/ubuntu-font-family/Ubuntu-RI.ttf'
p845
sg21
g22
sbag7
(g8
g9
NtRp846
(dp847
g12
g29
sg14
S'Ubuntu Mono'
p848
sg16
I700
sg17
g13
sg18
g13
sg19
S'/usr/share/fonts/truetype/ubuntu-font-family/UbuntuMono-BI.ttf'
p849
sg21
g22
sbag7
(g8
g9
NtRp850
(dp851
g12
g13
sg14
S'Arial'
p852
sg16
I700
sg17
g13
sg18
g13
sg19
S'/usr/share/fonts/truetype/msttcorefonts/arialbd.ttf'
p853
sg21
g22
sbag7
(g8
g9
NtRp854
(dp855
g12
g13
sg14
S'Umpush'
p856
sg16
I700
sg17
g13
sg18
g13
sg19
S'/usr/share/fonts/truetype/thai/Umpush-Bold.ttf'
p857
sg21
g22
sbag7
(g8
g9
NtRp858
(dp859
g12
g13
sg14
S'Rachana'
p860
sg16
I400
sg17
g13
sg18
g13
sg19
S'/usr/share/fonts/truetype/ttf-indic-fonts-core/Rachana_04.ttf'
p861
sg21
g22
sbag7
(g8
g9
NtRp862
(dp863
g12
g13
sg14
S'Trebuchet MS'
p864
sg16
I700
sg17
g13
sg18
g13
sg19
S'/usr/share/fonts/truetype/msttcorefonts/Trebuchet_MS_Bold.ttf'
p865
sg21
g22
sbag7
(g8
g9
NtRp866
(dp867
g12
g13
sg14
S'DejaVu Serif'
p868
sg16
I400
sg17
g13
sg18
g13
sg19
S'/usr/share/fonts/truetype/ttf-dejavu/DejaVuSerif.ttf'
p869
sg21
g22
sbag7
(g8
g9
NtRp870
(dp871
g12
g123
sg14
S'DejaVu Sans Mono'
p872
sg16
I700
sg17
g13
sg18
g13
sg19
S'/usr/share/fonts/truetype/ttf-dejavu/DejaVuSansMono-BoldOblique.ttf'
p873
sg21
g22
sbag7
(g8
g9
NtRp874
(dp875
g12
g13
sg14
S'Arial'
p876
sg16
I400
sg17
g13
sg18
g13
sg19
S'/usr/share/fonts/truetype/msttcorefonts/arial.ttf'
p877
sg21
g22
sbag7
(g8
g9
NtRp878
(dp879
g12
g123
sg14
S'FreeMono'
p880
sg16
I400
sg17
g13
sg18
g13
sg19
S'/usr/share/fonts/truetype/freefont/FreeMonoOblique.ttf'
p881
sg21
g22
sbag7
(g8
g9
NtRp882
(dp883
g12
g13
sg14
S'TlwgTypewriter'
p884
sg16
I700
sg17
g13
sg18
g13
sg19
S'/usr/share/fonts/truetype/thai/TlwgTypewriter-Bold.ttf'
p885
sg21
g22
sbag7
(g8
g9
NtRp886
(dp887
g12
g13
sg14
S'Norasi'
p888
sg16
I700
sg17
g13
sg18
g13
sg19
S'/usr/share/fonts/truetype/thai/Norasi-Bold.ttf'
p889
sg21
g22
sbag7
(g8
g9
NtRp890
(dp891
g12
g13
sg14
S'Comic Sans MS'
p892
sg16
I400
sg17
g13
sg18
g13
sg19
S'/usr/share/fonts/truetype/msttcorefonts/comic.ttf'
p893
sg21
g22
sbag7
(g8
g9
NtRp894
(dp895
g12
g13
sg14
S'Umpush'
p896
sg16
I200
sg17
g13
sg18
g13
sg19
S'/usr/share/fonts/truetype/thai/Umpush-Light.ttf'
p897
sg21
g22
sbag7
(g8
g9
NtRp898
(dp899
g12
g123
sg14
S'Garuda'
p900
sg16
I400
sg17
g13
sg18
g13
sg19
S'/usr/share/fonts/truetype/thai/Garuda-Oblique.ttf'
p901
sg21
g22
sbag7
(g8
g9
NtRp902
(dp903
g12
g13
sg14
S'Webdings'
p904
sg16
I400
sg17
g13
sg18
g13
sg19
S'/usr/share/fonts/truetype/msttcorefonts/webdings.ttf'
p905
sg21
g22
sbag7
(g8
g9
NtRp906
(dp907
g12
g123
sg14
S'Tlwg Typo'
p908
sg16
I700
sg17
g13
sg18
g13
sg19
S'/usr/share/fonts/truetype/thai/TlwgTypo-BoldOblique.ttf'
p909
sg21
g22
sbag7
(g8
g9
NtRp910
(dp911
g12
g123
sg14
S'DejaVu Sans Mono'
p912
sg16
I400
sg17
g13
sg18
g13
sg19
S'/usr/share/fonts/truetype/ttf-dejavu/DejaVuSansMono-Oblique.ttf'
p913
sg21
g22
sbag7
(g8
g9
NtRp914
(dp915
g12
g13
sg14
S'Arial'
p916
sg16
I700
sg17
g13
sg18
g13
sg19
S'/usr/share/fonts/truetype/msttcorefonts/Arial_Bold.ttf'
p917
sg21
g22
sbag7
(g8
g9
NtRp918
(dp919
g12
g13
sg14
S'TakaoPGothic'
p920
sg16
I400
sg17
g13
sg18
g13
sg19
S'/usr/share/fonts/truetype/ttf-japanese-gothic.ttf'
p921
sg21
g22
sbag7
(g8
g9
NtRp922
(dp923
g12
g13
sg14
S'Liberation Mono'
p924
sg16
I400
sg17
g13
sg18
g13
sg19
S'/usr/share/fonts/truetype/ttf-liberation/LiberationMono-Regular.ttf'
p925
sg21
g22
sbag7
(g8
g9
NtRp926
(dp927
g12
g13
sg14
S'Purisa'
p928
sg16
I700
sg17
g13
sg18
g13
sg19
S'/usr/share/fonts/truetype/thai/Purisa-Bold.ttf'
p929
sg21
g22
sbag7
(g8
g9
NtRp930
(dp931
g12
g123
sg14
S'Umpush'
p932
sg16
I400
sg17
g13
sg18
g13
sg19
S'/usr/share/fonts/truetype/thai/Umpush-Oblique.ttf'
p933
sg21
g22
sbag7
(g8
g9
NtRp934
(dp935
g12
g29
sg14
S'Times New Roman'
p936
sg16
I700
sg17
g13
sg18
g13
sg19
S'/usr/share/fonts/truetype/msttcorefonts/timesbi.ttf'
p937
sg21
g22
sbag7
(g8
g9
NtRp938
(dp939
g12
g13
sg14
S'Comic Sans MS'
p940
sg16
I400
sg17
g13
sg18
g13
sg19
S'/usr/share/fonts/truetype/msttcorefonts/Comic_Sans_MS.ttf'
p941
sg21
g22
sbag7
(g8
g9
NtRp942
(dp943
g12
g29
sg14
S'Droid Serif'
p944
sg16
I400
sg17
g13
sg18
g13
sg19
S'/usr/share/fonts/truetype/ttf-droid/DroidSerif-Italic.ttf'
p945
sg21
g22
sbag7
(g8
g9
NtRp946
(dp947
g12
g29
sg14
S'Liberation Serif'
p948
sg16
I700
sg17
g13
sg18
g13
sg19
S'/usr/share/fonts/truetype/ttf-liberation/LiberationSerif-BoldItalic.ttf'
p949
sg21
g22
sbag7
(g8
g9
NtRp950
(dp951
g12
g123
sg14
S'Sawasdee'
p952
sg16
I400
sg17
g13
sg18
g13
sg19
S'/usr/share/fonts/truetype/thai/Sawasdee-Oblique.ttf'
p953
sg21
g22
sbag7
(g8
g9
NtRp954
(dp955
g12
g29
sg14
S'Arial'
p956
sg16
I700
sg17
g13
sg18
g13
sg19
S'/usr/share/fonts/truetype/msttcorefonts/Arial_Bold_Italic.ttf'
p957
sg21
g22
sbag7
(g8
g9
NtRp958
(dp959
g12
g13
sg14
S'DejaVu Serif'
p960
sg16
I400
sg17
g119
sg18
g13
sg19
S'/usr/share/fonts/truetype/ttf-dejavu/DejaVuSerifCondensed.ttf'
p961
sg21
g22
sbag7
(g8
g9
NtRp962
(dp963
g12
g123
sg14
S'Purisa'
p964
sg16
I400
sg17
g13
sg18
g13
sg19
S'/usr/share/fonts/truetype/thai/Purisa-Oblique.ttf'
p965
sg21
g22
sbag7
(g8
g9
NtRp966
(dp967
g12
g13
sg14
S'FreeMono'
p968
sg16
I700
sg17
g13
sg18
g13
sg19
S'/usr/share/fonts/truetype/freefont/FreeMonoBold.ttf'
p969
sg21
g22
sbag7
(g8
g9
NtRp970
(dp971
g12
g13
sg14
S'Lohit Gujarati'
p972
sg16
I400
sg17
g13
sg18
g13
sg19
S'/usr/share/fonts/truetype/ttf-indic-fonts-core/lohit_gu.ttf'
p973
sg21
g22
sbag7
(g8
g9
NtRp974
(dp975
g12
g13
sg14
S'Impact'
p976
sg16
I400
sg17
g13
sg18
g13
sg19
S'/usr/share/fonts/truetype/msttcorefonts/impact.ttf'
p977
sg21
g22
sbag7
(g8
g9
NtRp978
(dp979
g12
g13
sg14
S'Trebuchet MS'
p980
sg16
I700
sg17
g13
sg18
g13
sg19
S'/usr/share/fonts/truetype/msttcorefonts/trebucbd.ttf'
p981
sg21
g22
sbag7
(g8
g9
NtRp982
(dp983
g12
g123
sg14
S'Tlwg Typist'
p984
sg16
I700
sg17
g13
sg18
g13
sg19
S'/usr/share/fonts/truetype/thai/TlwgTypist-BoldOblique.ttf'
p985
sg21
g22
sbag7
(g8
g9
NtRp986
(dp987
g12
g13
sg14
S'Ume P Gothic S5'
p988
sg16
I400
sg17
g13
sg18
g13
sg19
S'/usr/share/fonts/truetype/fonts-horai-umefont/ume-pgs5.ttf'
p989
sg21
g22
sbag7
(g8
g9
NtRp990
(dp991
g12
g13
sg14
S'Khmer OS'
p992
sg16
I400
sg17
g13
sg18
g13
sg19
S'/usr/share/fonts/truetype/ttf-khmeros-core/KhmerOS.ttf'
p993
sg21
g22
sbag7
(g8
g9
NtRp994
(dp995
g12
g13
sg14
S'Verdana'
p996
sg16
I700
sg17
g13
sg18
g13
sg19
S'/usr/share/fonts/truetype/msttcorefonts/verdanab.ttf'
p997
sg21
g22
sbag7
(g8
g9
NtRp998
(dp999
g12
g13
sg14
S'Tlwg Typo'
p1000
sg16
I700
sg17
g13
sg18
g13
sg19
S'/usr/share/fonts/truetype/thai/TlwgTypo-Bold.ttf'
p1001
sg21
g22
sbag7
(g8
g9
NtRp1002
(dp1003
g12
g29
sg14
S'Trebuchet MS'
p1004
sg16
I700
sg17
g13
sg18
g13
sg19
S'/usr/share/fonts/truetype/msttcorefonts/Trebuchet_MS_Bold_Italic.ttf'
p1005
sg21
g22
sbag7
(g8
g9
NtRp1006
(dp1007
g12
g123
sg14
S'TlwgTypewriter'
p1008
sg16
I400
sg17
g13
sg18
g13
sg19
S'/usr/share/fonts/truetype/thai/TlwgTypewriter-Oblique.ttf'
p1009
sg21
g22
sbag7
(g8
g9
NtRp1010
(dp1011
g12
g13
sg14
S'Ume Gothic S5'
p1012
sg16
I400
sg17
g13
sg18
g13
sg19
S'/usr/share/fonts/truetype/fonts-horai-umefont/ume-tgs5.ttf'
p1013
sg21
g22
sbag7
(g8
g9
NtRp1014
(dp1015
g12
g13
sg14
S'UnDotum'
p1016
sg16
I400
sg17
g13
sg18
g13
sg19
S'/usr/share/fonts/truetype/unfonts/UnDotum.ttf'
p1017
sg21
g22
sbag7
(g8
g9
NtRp1018
(dp1019
g12
g123
sg14
S'Waree'
p1020
sg16
I400
sg17
g13
sg18
g13
sg19
S'/usr/share/fonts/truetype/thai/Waree-Oblique.ttf'
p1021
sg21
g22
sbag7
(g8
g9
NtRp1022
(dp1023
g12
g29
sg14
S'Ubuntu Mono'
p1024
sg16
I400
sg17
g13
sg18
g13
sg19
S'/usr/share/fonts/truetype/ubuntu-font-family/UbuntuMono-RI.ttf'
p1025
sg21
g22
sbag7
(g8
g9
NtRp1026
(dp1027
g12
g13
sg14
S'Garuda'
p1028
sg16
I400
sg17
g13
sg18
g13
sg19
S'/usr/share/fonts/truetype/thai/Garuda.ttf'
p1029
sg21
g22
sbag7
(g8
g9
NtRp1030
(dp1031
g12
g13
sg14
S'FreeMono'
p1032
sg16
I400
sg17
g13
sg18
g13
sg19
S'/usr/share/fonts/truetype/freefont/FreeMono.ttf'
p1033
sg21
g22
sbag7
(g8
g9
NtRp1034
(dp1035
g12
g29
sg14
S'Norasi'
p1036
sg16
I700
sg17
g13
sg18
g13
sg19
S'/usr/share/fonts/truetype/thai/Norasi-BoldItalic.ttf'
p1037
sg21
g22
sbag7
(g8
g9
NtRp1038
(dp1039
g12
g123
sg14
S'Norasi'
p1040
sg16
I700
sg17
g13
sg18
g13
sg19
S'/usr/share/fonts/truetype/thai/Norasi-BoldOblique.ttf'
p1041
sg21
g22
sbag7
(g8
g9
NtRp1042
(dp1043
g12
g13
sg14
S'Untitled1'
p1044
sg16
I400
sg17
g13
sg18
g13
sg19
S'/usr/share/fonts/truetype/freefont/Untitled1.ttf'
p1045
sg21
g22
sbag7
(g8
g9
NtRp1046
(dp1047
g12
g29
sg14
S'FreeSerif'
p1048
sg16
I400
sg17
g13
sg18
g13
sg19
S'/usr/share/fonts/truetype/freefont/FreeSerifItalic.ttf'
p1049
sg21
g22
sbag7
(g8
g9
NtRp1050
(dp1051
g12
g13
sg14
S'Mukti Narrow'
p1052
sg16
I400
sg17
g13
sg18
g13
sg19
S'/usr/share/fonts/truetype/ttf-indic-fonts-core/MuktiNarrow.ttf'
p1053
sg21
g22
sbag7
(g8
g9
NtRp1054
(dp1055
g12
g13
sg14
S'Ubuntu'
p1056
sg16
I200
sg17
g13
sg18
g13
sg19
S'/usr/share/fonts/truetype/ubuntu-font-family/Ubuntu-L.ttf'
p1057
sg21
g22
sbag7
(g8
g9
NtRp1058
(dp1059
g12
g29
sg14
S'Norasi'
p1060
sg16
I400
sg17
g13
sg18
g13
sg19
S'/usr/share/fonts/truetype/thai/Norasi-Italic.ttf'
p1061
sg21
g22
sbag7
(g8
g9
NtRp1062
(dp1063
g12
g13
sg14
S'Courier New'
p1064
sg16
I700
sg17
g13
sg18
g13
sg19
S'/usr/share/fonts/truetype/msttcorefonts/courbd.ttf'
p1065
sg21
g22
sbag7
(g8
g9
NtRp1066
(dp1067
g12
g13
sg14
S'Liberation Sans'
p1068
sg16
I400
sg17
g13
sg18
g13
sg19
S'/usr/share/fonts/truetype/ttf-liberation/LiberationSans-Regular.ttf'
p1069
sg21
g22
sbag7
(g8
g9
NtRp1070
(dp1071
g12
g13
sg14
S'Times New Roman'
p1072
sg16
I700
sg17
g13
sg18
g13
sg19
S'/usr/share/fonts/truetype/msttcorefonts/Times_New_Roman_Bold.ttf'
p1073
sg21
g22
sbag7
(g8
g9
NtRp1074
(dp1075
g12
g13
sg14
S'Ume UI Gothic O5'
p1076
sg16
I400
sg17
g13
sg18
g13
sg19
S'/usr/share/fonts/truetype/fonts-horai-umefont/ume-ugo5.ttf'
p1077
sg21
g22
sbag7
(g8
g9
NtRp1078
(dp1079
g12
g13
sg14
S'Droid Sans Mono'
p1080
sg16
I400
sg17
g13
sg18
g13
sg19
S'/usr/share/fonts/truetype/ttf-droid/DroidSansMono.ttf'
p1081
sg21
g22
sbasS'defaultFamily'
p1082
(dp1083
S'afm'
p1084
S'Helvetica'
p1085
sS'ttf'
p1086
S'Bitstream Vera Sans'
p1087
ssS'ttffiles'
p1088
(lp1089
S'/usr/share/matplotlib/mpl-data/fonts/ttf/cmb10.ttf'
p1090
aS'/usr/share/matplotlib/mpl-data/fonts/ttf/cmex10.ttf'
p1091
aS'/usr/share/matplotlib/mpl-data/fonts/ttf/STIXNonUniIta.ttf'
p1092
aS'/usr/share/matplotlib/mpl-data/fonts/ttf/STIXNonUni.ttf'
p1093
aS'/usr/share/matplotlib/mpl-data/fonts/ttf/STIXSizThreeSymReg.ttf'
p1094
aS'/usr/share/matplotlib/mpl-data/fonts/ttf/STIXSizTwoSymBol.ttf'
p1095
aS'/usr/share/matplotlib/mpl-data/fonts/ttf/cmtt10.ttf'
p1096
aS'/usr/share/matplotlib/mpl-data/fonts/ttf/STIXGeneral.ttf'
p1097
aS'/usr/share/matplotlib/mpl-data/fonts/ttf/STIXSizThreeSymBol.ttf'
p1098
aS'/usr/share/matplotlib/mpl-data/fonts/ttf/STIXSizFiveSymReg.ttf'
p1099
aS'/usr/share/matplotlib/mpl-data/fonts/ttf/STIXSizOneSymBol.ttf'
p1100
aS'/usr/share/matplotlib/mpl-data/fonts/ttf/STIXGeneralBol.ttf'
p1101
aS'/usr/share/matplotlib/mpl-data/fonts/ttf/cmr10.ttf'
p1102
aS'/usr/share/matplotlib/mpl-data/fonts/ttf/STIXSizTwoSymReg.ttf'
p1103
aS'/usr/share/matplotlib/mpl-data/fonts/ttf/STIXSizFourSymReg.ttf'
p1104
aS'/usr/share/matplotlib/mpl-data/fonts/ttf/cmsy10.ttf'
p1105
aS'/usr/share/matplotlib/mpl-data/fonts/ttf/STIXNonUniBolIta.ttf'
p1106
aS'/usr/share/matplotlib/mpl-data/fonts/ttf/cmss10.ttf'
p1107
aS'/usr/share/matplotlib/mpl-data/fonts/ttf/STIXSizFourSymBol.ttf'
p1108
aS'/usr/share/matplotlib/mpl-data/fonts/ttf/STIXGeneralItalic.ttf'
p1109
aS'/usr/share/matplotlib/mpl-data/fonts/ttf/STIXSizOneSymReg.ttf'
p1110
aS'/usr/share/matplotlib/mpl-data/fonts/ttf/cmmi10.ttf'
p1111
aS'/usr/share/matplotlib/mpl-data/fonts/ttf/STIXNonUniBol.ttf'
p1112
aS'/usr/share/matplotlib/mpl-data/fonts/ttf/STIXGeneralBolIta.ttf'
p1113
aS'/usr/share/fonts/truetype/ttf-liberation/LiberationSansNarrow-Regular.ttf'
p1114
aS'/usr/share/fonts/truetype/thai/Purisa-BoldOblique.ttf'
p1115
aS'/usr/share/fonts/truetype/fonts-horai-umefont/ume-ugo4.ttf'
p1116
aS'/usr/share/fonts/truetype/ttf-indic-fonts-core/Malige-b.ttf'
p1117
aS'/usr/share/fonts/truetype/thai/Kinnari-BoldOblique.ttf'
p1118
aS'/usr/share/fonts/truetype/thai/TlwgTypo-Oblique.ttf'
p1119
aS'/usr/share/fonts/truetype/ttf-liberation/LiberationSans-Bold.ttf'
p1120
aS'/usr/share/fonts/truetype/thai/Umpush.ttf'
p1121
aS'/usr/share/fonts/truetype/msttcorefonts/Times_New_Roman.ttf'
p1122
aS'/usr/share/fonts/truetype/thai/Loma-BoldOblique.ttf'
p1123
aS'/usr/share/fonts/truetype/freefont/FreeSans.ttf'
p1124
aS'/usr/share/fonts/truetype/unfonts/UnBatangBold.ttf'
p1125
aS'/usr/share/fonts/truetype/msttcorefonts/verdanai.ttf'
p1126
aS'/usr/share/fonts/truetype/freefont/FreeSerif.ttf'
p1127
aS'/usr/share/fonts/truetype/ttf-lyx/rsfs10.ttf'
p1128
aS'/usr/share/fonts/truetype/ttf-dejavu/DejaVuSansCondensed.ttf'
p1129
aS'/usr/share/fonts/truetype/ttf-liberation/LiberationMono-Bold.ttf'
p1130
aS'/usr/share/fonts/truetype/fonts-horai-umefont/ume-tms3.ttf'
p1131
aS'/usr/share/fonts/truetype/ttf-droid/DroidSansFallback.ttf'
p1132
aS'/usr/share/fonts/truetype/ttf-lao/Phetsarath_OT.ttf'
p1133
aS'/usr/share/fonts/truetype/ttf-dejavu/DejaVuSansMono.ttf'
p1134
aS'/usr/share/fonts/truetype/ttf-punjabi-fonts/lohit_pa.ttf'
p1135
aS'/usr/share/fonts/truetype/thai/TlwgMono-Oblique.ttf'
p1136
aS'/usr/share/fonts/truetype/fonts-horai-umefont/ume-pgs4.ttf'
p1137
aS'/usr/share/fonts/truetype/ttf-indic-fonts-core/Meera_04.ttf'
p1138
aS'/usr/share/fonts/truetype/thai/Loma-Oblique.ttf'
p1139
aS'/usr/share/fonts/truetype/ttf-liberation/LiberationSerif-Regular.ttf'
p1140
aS'/usr/share/fonts/truetype/msttcorefonts/Georgia_Bold.ttf'
p1141
aS'/usr/share/fonts/truetype/msttcorefonts/ariblk.ttf'
p1142
aS'/usr/share/fonts/truetype/freefont/FreeSerifBold.ttf'
p1143
aS'/usr/share/fonts/truetype/thai/Umpush-BoldOblique.ttf'
p1144
aS'/usr/share/fonts/truetype/ttf-liberation/LiberationMono-Italic.ttf'
p1145
aS'/usr/share/fonts/truetype/ttf-dejavu/DejaVuSerif-Bold.ttf'
p1146
aS'/usr/share/fonts/truetype/msttcorefonts/timesbd.ttf'
p1147
aS'/usr/share/fonts/truetype/msttcorefonts/georgiab.ttf'
p1148
aS'/usr/share/fonts/truetype/ttf-dejavu/DejaVuSerif-Italic.ttf'
p1149
aS'/usr/share/fonts/truetype/freefont/FreeSansOblique.ttf'
p1150
aS'/usr/share/fonts/truetype/msttcorefonts/Comic_Sans_MS_Bold.ttf'
p1151
aS'/usr/share/fonts/truetype/ttf-kacst-one/KacstOne.ttf'
p1152
aS'/usr/share/fonts/truetype/thai/TlwgMono-Bold.ttf'
p1153
aS'/usr/share/fonts/truetype/ttf-indic-fonts-core/lohit_hi.ttf'
p1154
aS'/usr/share/fonts/truetype/msttcorefonts/Courier_New_Bold.ttf'
p1155
aS'/usr/share/fonts/truetype/msttcorefonts/Georgia_Bold_Italic.ttf'
p1156
aS'/usr/share/fonts/truetype/ttf-dejavu/DejaVuSans-Oblique.ttf'
p1157
aS'/usr/share/fonts/truetype/unfonts/UnDotumBold.ttf'
p1158
aS'/usr/share/fonts/truetype/thai/Norasi.ttf'
p1159
aS'/usr/share/fonts/truetype/ubuntu-font-family/Ubuntu-R.ttf'
p1160
aS'/usr/share/fonts/truetype/msttcorefonts/Times_New_Roman_Bold_Italic.ttf'
p1161
aS'/usr/share/fonts/truetype/ttf-lyx/eufm10.ttf'
p1162
aS'/usr/share/fonts/truetype/ttf-dejavu/DejaVuSans-BoldOblique.ttf'
p1163
aS'/usr/share/fonts/truetype/ttf-liberation/LiberationSansNarrow-Italic.ttf'
p1164
aS'/usr/share/fonts/truetype/ttf-liberation/LiberationSans-Italic.ttf'
p1165
aS'/usr/share/fonts/truetype/ttf-lyx/wasy10.ttf'
p1166
aS'/usr/share/fonts/truetype/msttcorefonts/Impact.ttf'
p1167
aS'/usr/share/fonts/truetype/ttf-dejavu/DejaVuSansCondensed-BoldOblique.ttf'
p1168
aS'/usr/share/fonts/truetype/msttcorefonts/Georgia.ttf'
p1169
aS'/usr/share/fonts/truetype/ttf-dejavu/DejaVuSansCondensed-Bold.ttf'
p1170
aS'/usr/share/fonts/truetype/thai/Sawasdee-Bold.ttf'
p1171
aS'/usr/share/fonts/truetype/fonts-horai-umefont/ume-tgs4.ttf'
p1172
aS'/usr/share/fonts/truetype/ttf-lyx/msbm10.ttf'
p1173
aS'/usr/share/fonts/truetype/ttf-droid/DroidSansThai.ttf'
p1174
aS'/usr/share/fonts/truetype/msttcorefonts/andalemo.ttf'
p1175
aS'/usr/share/fonts/truetype/thai/Waree.ttf'
p1176
aS'/usr/share/fonts/truetype/ttf-droid/DroidSerif-BoldItalic.ttf'
p1177
aS'/usr/share/fonts/truetype/msttcorefonts/arialbi.ttf'
p1178
aS'/usr/share/fonts/truetype/msttcorefonts/Verdana.ttf'
p1179
aS'/usr/share/fonts/truetype/fonts-horai-umefont/ume-tgc5.ttf'
p1180
aS'/usr/share/fonts/truetype/ttf-dejavu/DejaVuSansMono-Bold.ttf'
p1181
aS'/usr/share/fonts/truetype/thai/Sawasdee-BoldOblique.ttf'
p1182
aS'/usr/share/fonts/truetype/ttf-indic-fonts-core/Pothana2000.ttf'
p1183
aS'/usr/share/fonts/truetype/thai/Waree-BoldOblique.ttf'
p1184
aS'/usr/share/fonts/truetype/thai/TlwgTypewriter.ttf'
p1185
aS'/usr/share/fonts/truetype/ttf-dejavu/DejaVuSansCondensed-Oblique.ttf'
p1186
aS'/usr/share/fonts/truetype/msttcorefonts/cour.ttf'
p1187
aS'/usr/share/fonts/truetype/ttf-indic-fonts-core/utkal.ttf'
p1188
aS'/usr/share/fonts/truetype/ttf-liberation/LiberationSerif-Italic.ttf'
p1189
aS'/usr/share/fonts/truetype/ttf-dejavu/DejaVuSerif-BoldItalic.ttf'
p1190
aS'/usr/share/fonts/truetype/fonts-horai-umefont/ume-pgo5.ttf'
p1191
aS'/usr/share/fonts/truetype/msttcorefonts/Trebuchet_MS.ttf'
p1192
aS'/usr/share/fonts/truetype/thai/TlwgMono-BoldOblique.ttf'
p1193
aS'/usr/share/fonts/truetype/thai/TlwgTypist-Oblique.ttf'
p1194
aS'/usr/share/fonts/truetype/ttf-liberation/LiberationSansNarrow-BoldItalic.ttf'
p1195
aS'/usr/share/fonts/truetype/ttf-indic-fonts-core/Kedage-b.ttf'
p1196
aS'/usr/share/fonts/truetype/ttf-dejavu/DejaVuSerifCondensed-Bold.ttf'
p1197
aS'/usr/share/fonts/truetype/ubuntu-font-family/UbuntuMono-R.ttf'
p1198
aS'/usr/share/fonts/truetype/msttcorefonts/Trebuchet_MS_Italic.ttf'
p1199
aS'/usr/share/fonts/truetype/ttf-liberation/LiberationSerif-Bold.ttf'
p1200
aS'/usr/share/fonts/truetype/msttcorefonts/Courier_New.ttf'
p1201
aS'/usr/share/fonts/truetype/msttcorefonts/comicbd.ttf'
p1202
aS'/usr/share/fonts/truetype/thai/TlwgTypist-Bold.ttf'
p1203
aS'/usr/share/fonts/truetype/msttcorefonts/Arial.ttf'
p1204
aS'/usr/share/fonts/truetype/ttf-liberation/LiberationMono-BoldItalic.ttf'
p1205
aS'/usr/share/fonts/truetype/fonts-horai-umefont/ume-tgc4.ttf'
p1206
aS'/usr/share/fonts/truetype/msttcorefonts/courbi.ttf'
p1207
aS'/usr/share/fonts/truetype/msttcorefonts/times.ttf'
p1208
aS'/usr/share/fonts/truetype/takao/TakaoPGothic.ttf'
p1209
aS'/usr/share/fonts/truetype/msttcorefonts/Verdana_Italic.ttf'
p1210
aS'/usr/share/fonts/truetype/ttf-liberation/LiberationSans-BoldItalic.ttf'
p1211
aS'/usr/share/fonts/truetype/ttf-droid/DroidSansArabic.ttf'
p1212
aS'/usr/share/fonts/truetype/ttf-indic-fonts-core/Malige-n.ttf'
p1213
aS'/usr/share/fonts/truetype/msttcorefonts/georgia.ttf'
p1214
aS'/usr/share/fonts/truetype/fonts-horai-umefont/ume-pgc4.ttf'
p1215
aS'/usr/share/fonts/truetype/msttcorefonts/trebuc.ttf'
p1216
aS'/usr/share/fonts/truetype/ttf-dejavu/DejaVuSans.ttf'
p1217
aS'/usr/share/fonts/truetype/freefont/FreeSansBold.ttf'
p1218
aS'/usr/share/fonts/truetype/thai/Loma-Bold.ttf'
p1219
aS'/usr/share/fonts/truetype/ttf-indic-fonts-core/lohit_bn.ttf'
p1220
aS'/usr/share/fonts/truetype/thai/Sawasdee.ttf'
p1221
aS'/usr/share/fonts/truetype/fonts-horai-umefont/ume-tgo4.ttf'
p1222
aS'/usr/share/fonts/truetype/ttf-punjabi-fonts/Saab.ttf'
p1223
aS'/usr/share/fonts/truetype/ttf-dejavu/DejaVuSans-Bold.ttf'
p1224
aS'/usr/share/fonts/truetype/fonts-horai-umefont/ume-pgc5.ttf'
p1225
aS'/usr/share/fonts/truetype/ttf-dejavu/DejaVuSans-ExtraLight.ttf'
p1226
aS'/usr/share/fonts/truetype/msttcorefonts/trebucit.ttf'
p1227
aS'/usr/share/fonts/truetype/msttcorefonts/verdana.ttf'
p1228
aS'/usr/share/fonts/truetype/msttcorefonts/verdanaz.ttf'
p1229
aS'/usr/share/fonts/truetype/fonts-horai-umefont/ume-pmo3.ttf'
p1230
aS'/usr/share/fonts/truetype/ttf-droid/DroidSans.ttf'
p1231
aS'/usr/share/fonts/truetype/msttcorefonts/georgiai.ttf'
p1232
aS'/usr/share/fonts/truetype/msttcorefonts/Andale_Mono.ttf'
p1233
aS'/usr/share/fonts/truetype/msttcorefonts/Georgia_Italic.ttf'
p1234
aS'/usr/share/fonts/truetype/ubuntu-font-family/Ubuntu-LI.ttf'
p1235
aS'/usr/share/fonts/truetype/ttf-droid/DroidSans-Bold.ttf'
p1236
aS'/usr/share/fonts/truetype/thai/TlwgTypewriter-BoldOblique.ttf'
p1237
aS'/usr/share/fonts/truetype/thai/Garuda-Bold.ttf'
p1238
aS'/usr/share/fonts/truetype/ttf-droid/DroidSerif-Regular.ttf'
p1239
aS'/usr/share/fonts/truetype/msttcorefonts/Courier_New_Italic.ttf'
p1240
aS'/usr/share/fonts/truetype/fonts-horai-umefont/ume-tgo5.ttf'
p1241
aS'/usr/share/fonts/truetype/msttcorefonts/couri.ttf'
p1242
aS'/usr/share/fonts/truetype/ttf-indic-fonts-core/Rekha.ttf'
p1243
aS'/usr/share/fonts/truetype/thai/Kinnari-Bold.ttf'
p1244
aS'/usr/share/fonts/truetype/ttf-dejavu/DejaVuSerifCondensed-BoldItalic.ttf'
p1245
aS'/usr/share/fonts/truetype/ubuntu-font-family/UbuntuMono-B.ttf'
p1246
aS'/usr/share/fonts/truetype/ttf-lyx/esint10.ttf'
p1247
aS'/usr/share/fonts/truetype/thai/TlwgMono.ttf'
p1248
aS'/usr/share/fonts/truetype/thai/Umpush-LightOblique.ttf'
p1249
aS'/usr/share/fonts/truetype/msttcorefonts/Verdana_Bold_Italic.ttf'
p1250
aS'/usr/share/fonts/truetype/unfonts/UnBatang.ttf'
p1251
aS'/usr/share/fonts/truetype/ttf-indic-fonts-core/gargi.ttf'
p1252
aS'/usr/share/fonts/truetype/openoffice/opens___.ttf'
p1253
aS'/usr/share/fonts/truetype/ubuntu-font-family/Ubuntu-BI.ttf'
p1254
aS'/usr/share/fonts/truetype/ttf-khmeros-core/KhmerOSsys.ttf'
p1255
aS'/usr/share/fonts/truetype/thai/Kinnari-Italic.ttf'
p1256
aS'/usr/share/fonts/truetype/ttf-dejavu/DejaVuSerifCondensed-Italic.ttf'
p1257
aS'/usr/share/fonts/truetype/msttcorefonts/Arial_Black.ttf'
p1258
aS'/usr/share/fonts/truetype/msttcorefonts/Webdings.ttf'
p1259
aS'/usr/share/fonts/truetype/ttf-indic-fonts-core/MuktiNarrowBold.ttf'
p1260
aS'/usr/share/fonts/truetype/fonts-horai-umefont/ume-pms3.ttf'
p1261
aS'/usr/share/fonts/truetype/msttcorefonts/Verdana_Bold.ttf'
p1262
aS'/usr/share/fonts/truetype/thai/Kinnari-BoldItalic.ttf'
p1263
aS'/usr/share/fonts/truetype/ubuntu-font-family/Ubuntu-B.ttf'
p1264
aS'/usr/share/fonts/truetype/freefont/FreeSansBoldOblique.ttf'
p1265
aS'/usr/share/fonts/truetype/ttf-droid/DroidSerif-Bold.ttf'
p1266
aS'/usr/share/fonts/truetype/ttf-lyx/cmex10.ttf'
p1267
aS'/usr/share/fonts/truetype/fonts-horai-umefont/ume-pgo4.ttf'
p1268
aS'/usr/share/fonts/truetype/thai/Kinnari.ttf'
p1269
aS'/usr/share/fonts/truetype/msttcorefonts/Arial_Italic.ttf'
p1270
aS'/usr/share/fonts/truetype/freefont/FreeMonoBoldOblique.ttf'
p1271
aS'/usr/share/fonts/truetype/ttf-lyx/msam10.ttf'
p1272
aS'/usr/share/fonts/truetype/thai/TlwgTypist.ttf'
p1273
aS'/usr/share/fonts/truetype/fonts-horai-umefont/ume-tmo3.ttf'
p1274
aS'/usr/share/fonts/truetype/thai/Norasi-Oblique.ttf'
p1275
aS'/usr/share/fonts/truetype/thai/Kinnari-Oblique.ttf'
p1276
aS'/usr/share/fonts/truetype/thai/Garuda-BoldOblique.ttf'
p1277
aS'/usr/share/fonts/truetype/ttf-lyx/cmr10.ttf'
p1278
aS'/usr/share/fonts/truetype/msttcorefonts/ariali.ttf'
p1279
aS'/usr/share/fonts/truetype/ttf-droid/DroidSansJapanese.ttf'
p1280
aS'/usr/share/fonts/truetype/freefont/FreeSerifBoldItalic.ttf'
p1281
aS'/usr/share/fonts/truetype/thai/TlwgTypo.ttf'
p1282
aS'/usr/share/fonts/truetype/msttcorefonts/trebucbi.ttf'
p1283
aS'/usr/share/fonts/truetype/thai/Purisa.ttf'
p1284
aS'/usr/share/fonts/truetype/ttf-indic-fonts-core/Vemana.ttf'
p1285
aS'/usr/share/fonts/truetype/ttf-lyx/cmmi10.ttf'
p1286
aS'/usr/share/fonts/truetype/thai/Loma.ttf'
p1287
aS'/usr/share/fonts/truetype/ttf-droid/DroidSansHebrew.ttf'
p1288
aS'/usr/share/fonts/truetype/thai/Waree-Bold.ttf'
p1289
aS'/usr/share/fonts/truetype/msttcorefonts/timesi.ttf'
p1290
aS'/usr/share/fonts/truetype/msttcorefonts/Times_New_Roman_Italic.ttf'
p1291
aS'/usr/share/fonts/truetype/ttf-indic-fonts-core/Kedage-n.ttf'
p1292
aS'/usr/share/fonts/truetype/ttf-liberation/LiberationSansNarrow-Bold.ttf'
p1293
aS'/usr/share/fonts/truetype/ttf-indic-fonts-core/lohit_ta.ttf'
p1294
aS'/usr/share/fonts/truetype/ubuntu-font-family/Ubuntu-C.ttf'
p1295
aS'/usr/share/fonts/truetype/ttf-lyx/cmsy10.ttf'
p1296
aS'/usr/share/fonts/truetype/msttcorefonts/georgiaz.ttf'
p1297
aS'/usr/share/fonts/truetype/msttcorefonts/Courier_New_Bold_Italic.ttf'
p1298
aS'/usr/share/fonts/truetype/ubuntu-font-family/Ubuntu-RI.ttf'
p1299
aS'/usr/share/fonts/truetype/ubuntu-font-family/UbuntuMono-BI.ttf'
p1300
aS'/usr/share/fonts/truetype/msttcorefonts/arialbd.ttf'
p1301
aS'/usr/share/fonts/truetype/thai/Umpush-Bold.ttf'
p1302
aS'/usr/share/fonts/truetype/ttf-indic-fonts-core/Rachana_04.ttf'
p1303
aS'/usr/share/fonts/truetype/msttcorefonts/Trebuchet_MS_Bold.ttf'
p1304
aS'/usr/share/fonts/truetype/ttf-dejavu/DejaVuSerif.ttf'
p1305
aS'/usr/share/fonts/truetype/ttf-dejavu/DejaVuSansMono-BoldOblique.ttf'
p1306
aS'/usr/share/fonts/truetype/msttcorefonts/arial.ttf'
p1307
aS'/usr/share/fonts/truetype/freefont/FreeMonoOblique.ttf'
p1308
aS'/usr/share/fonts/truetype/thai/TlwgTypewriter-Bold.ttf'
p1309
aS'/usr/share/fonts/truetype/thai/Norasi-Bold.ttf'
p1310
aS'/usr/share/fonts/truetype/msttcorefonts/comic.ttf'
p1311
aS'/usr/share/fonts/truetype/thai/Umpush-Light.ttf'
p1312
aS'/usr/share/fonts/truetype/thai/Garuda-Oblique.ttf'
p1313
aS'/usr/share/fonts/truetype/msttcorefonts/webdings.ttf'
p1314
aS'/usr/share/fonts/truetype/thai/TlwgTypo-BoldOblique.ttf'
p1315
aS'/usr/share/fonts/truetype/ttf-dejavu/DejaVuSansMono-Oblique.ttf'
p1316
aS'/usr/share/fonts/truetype/msttcorefonts/Arial_Bold.ttf'
p1317
aS'/usr/share/fonts/truetype/ttf-japanese-gothic.ttf'
p1318
aS'/usr/share/fonts/truetype/ttf-liberation/LiberationMono-Regular.ttf'
p1319
aS'/usr/share/fonts/truetype/thai/Purisa-Bold.ttf'
p1320
aS'/usr/share/fonts/truetype/thai/Umpush-Oblique.ttf'
p1321
aS'/usr/share/fonts/truetype/msttcorefonts/timesbi.ttf'
p1322
aS'/usr/share/fonts/truetype/msttcorefonts/Comic_Sans_MS.ttf'
p1323
aS'/usr/share/fonts/truetype/ttf-droid/DroidSerif-Italic.ttf'
p1324
aS'/usr/share/fonts/truetype/ttf-liberation/LiberationSerif-BoldItalic.ttf'
p1325
aS'/usr/share/fonts/truetype/thai/Sawasdee-Oblique.ttf'
p1326
aS'/usr/share/fonts/truetype/msttcorefonts/Arial_Bold_Italic.ttf'
p1327
aS'/usr/share/fonts/truetype/ttf-dejavu/DejaVuSerifCondensed.ttf'
p1328
aS'/usr/share/fonts/truetype/thai/Purisa-Oblique.ttf'
p1329
aS'/usr/share/fonts/truetype/freefont/FreeMonoBold.ttf'
p1330
aS'/usr/share/fonts/truetype/ttf-indic-fonts-core/lohit_gu.ttf'
p1331
aS'/usr/share/fonts/truetype/msttcorefonts/impact.ttf'
p1332
aS'/usr/share/fonts/truetype/msttcorefonts/trebucbd.ttf'
p1333
aS'/usr/share/fonts/truetype/thai/TlwgTypist-BoldOblique.ttf'
p1334
aS'/usr/share/fonts/truetype/fonts-horai-umefont/ume-pgs5.ttf'
p1335
aS'/usr/share/fonts/truetype/ttf-khmeros-core/KhmerOS.ttf'
p1336
aS'/usr/share/fonts/truetype/msttcorefonts/verdanab.ttf'
p1337
aS'/usr/share/fonts/truetype/thai/TlwgTypo-Bold.ttf'
p1338
aS'/usr/share/fonts/truetype/msttcorefonts/Trebuchet_MS_Bold_Italic.ttf'
p1339
aS'/usr/share/fonts/truetype/thai/TlwgTypewriter-Oblique.ttf'
p1340
aS'/usr/share/fonts/truetype/fonts-horai-umefont/ume-tgs5.ttf'
p1341
aS'/usr/share/fonts/truetype/unfonts/UnDotum.ttf'
p1342
aS'/usr/share/fonts/truetype/thai/Waree-Oblique.ttf'
p1343
aS'/usr/share/fonts/truetype/ubuntu-font-family/UbuntuMono-RI.ttf'
p1344
aS'/usr/share/fonts/truetype/thai/Garuda.ttf'
p1345
aS'/usr/share/fonts/truetype/freefont/FreeMono.ttf'
p1346
aS'/usr/share/fonts/truetype/thai/Norasi-BoldItalic.ttf'
p1347
aS'/usr/share/fonts/truetype/thai/Norasi-BoldOblique.ttf'
p1348
aS'/usr/share/fonts/truetype/freefont/Untitled1.ttf'
p1349
aS'/usr/share/fonts/truetype/freefont/FreeSerifItalic.ttf'
p1350
aS'/usr/share/fonts/truetype/ttf-indic-fonts-core/MuktiNarrow.ttf'
p1351
aS'/usr/share/fonts/truetype/ubuntu-font-family/Ubuntu-L.ttf'
p1352
aS'/usr/share/fonts/truetype/thai/Norasi-Italic.ttf'
p1353
aS'/usr/share/fonts/truetype/msttcorefonts/courbd.ttf'
p1354
aS'/usr/share/fonts/truetype/ttf-liberation/LiberationSans-Regular.ttf'
p1355
aS'/usr/share/fonts/truetype/msttcorefonts/Times_New_Roman_Bold.ttf'
p1356
aS'/usr/share/fonts/truetype/fonts-horai-umefont/ume-ugo5.ttf'
p1357
aS'/usr/share/fonts/truetype/ttf-droid/DroidSansMono.ttf'
p1358
asS'_FontManager__default_weight'
p1359
g13
sS'_version'
p1360
I7
sS'ttf_lookup_cache'
p1361
(dp1362
sS'default_size'
p1363
NsS'defaultFont'
p1364
(dp1365
g1084
Nsg1086
g1090
ssS'afmfiles'
p1366
(lp1367
S'/usr/share/matplotlib/mpl-data/fonts/afm/pagko8a.afm'
p1368
aS'/usr/share/matplotlib/mpl-data/fonts/afm/pzcmi8a.afm'
p1369
aS'/usr/share/matplotlib/mpl-data/fonts/pdfcorefonts/Helvetica.afm'
p1370
aS'/usr/share/matplotlib/mpl-data/fonts/afm/phvl8a.afm'
p1371
aS'/usr/share/matplotlib/mpl-data/fonts/afm/putbi8a.afm'
p1372
aS'/usr/share/matplotlib/mpl-data/fonts/pdfcorefonts/Helvetica-BoldOblique.afm'
p1373
aS'/usr/share/matplotlib/mpl-data/fonts/afm/phvb8an.afm'
p1374
aS'/usr/share/matplotlib/mpl-data/fonts/afm/pbkd8a.afm'
p1375
aS'/usr/share/matplotlib/mpl-data/fonts/afm/pcrbo8a.afm'
p1376
aS'/usr/share/matplotlib/mpl-data/fonts/pdfcorefonts/Helvetica-Bold.afm'
p1377
aS'/usr/share/matplotlib/mpl-data/fonts/pdfcorefonts/Times-BoldItalic.afm'
p1378
aS'/usr/share/matplotlib/mpl-data/fonts/afm/putr8a.afm'
p1379
aS'/usr/share/matplotlib/mpl-data/fonts/afm/phvr8a.afm'
p1380
aS'/usr/share/matplotlib/mpl-data/fonts/afm/pcrr8a.afm'
p1381
aS'/usr/share/matplotlib/mpl-data/fonts/afm/pncb8a.afm'
p1382
aS'/usr/share/matplotlib/mpl-data/fonts/pdfcorefonts/Courier-Bold.afm'
p1383
aS'/usr/share/matplotlib/mpl-data/fonts/afm/pcrro8a.afm'
p1384
aS'/usr/share/matplotlib/mpl-data/fonts/afm/pagdo8a.afm'
p1385
aS'/usr/share/matplotlib/mpl-data/fonts/afm/cmtt10.afm'
p1386
aS'/usr/share/matplotlib/mpl-data/fonts/pdfcorefonts/Symbol.afm'
p1387
aS'/usr/share/matplotlib/mpl-data/fonts/afm/phvr8an.afm'
p1388
aS'/usr/share/matplotlib/mpl-data/fonts/afm/phvro8a.afm'
p1389
aS'/usr/share/matplotlib/mpl-data/fonts/afm/ptmr8a.afm'
p1390
aS'/usr/share/matplotlib/mpl-data/fonts/pdfcorefonts/Helvetica-Oblique.afm'
p1391
aS'/usr/share/matplotlib/mpl-data/fonts/afm/pplbi8a.afm'
p1392
aS'/usr/share/matplotlib/mpl-data/fonts/afm/cmsy10.afm'
p1393
aS'/usr/share/matplotlib/mpl-data/fonts/afm/pagk8a.afm'
p1394
aS'/usr/share/matplotlib/mpl-data/fonts/pdfcorefonts/Courier-BoldOblique.afm'
p1395
aS'/usr/share/matplotlib/mpl-data/fonts/afm/putb8a.afm'
p1396
aS'/usr/share/matplotlib/mpl-data/fonts/afm/cmmi10.afm'
p1397
aS'/usr/share/matplotlib/mpl-data/fonts/afm/pplb8a.afm'
p1398
aS'/usr/share/matplotlib/mpl-data/fonts/afm/pbkdi8a.afm'
p1399
aS'/usr/share/matplotlib/mpl-data/fonts/afm/phvbo8a.afm'
p1400
aS'/usr/share/matplotlib/mpl-data/fonts/afm/cmr10.afm'
p1401
aS'/usr/share/matplotlib/mpl-data/fonts/pdfcorefonts/Times-Bold.afm'
p1402
aS'/usr/share/matplotlib/mpl-data/fonts/afm/ptmb8a.afm'
p1403
aS'/usr/share/matplotlib/mpl-data/fonts/afm/phvlo8a.afm'
p1404
aS'/usr/share/matplotlib/mpl-data/fonts/afm/phvb8a.afm'
p1405
aS'/usr/share/matplotlib/mpl-data/fonts/afm/pzdr.afm'
p1406
aS'/usr/share/matplotlib/mpl-data/fonts/afm/ptmri8a.afm'
p1407
aS'/usr/share/matplotlib/mpl-data/fonts/afm/pplr8a.afm'
p1408
aS'/usr/share/matplotlib/mpl-data/fonts/afm/pbkl8a.afm'
p1409
aS'/usr/share/matplotlib/mpl-data/fonts/afm/pncbi8a.afm'
p1410
aS'/usr/share/matplotlib/mpl-data/fonts/pdfcorefonts/ZapfDingbats.afm'
p1411
aS'/usr/share/matplotlib/mpl-data/fonts/afm/psyr.afm'
p1412
aS'/usr/share/matplotlib/mpl-data/fonts/afm/putri8a.afm'
p1413
aS'/usr/share/matplotlib/mpl-data/fonts/afm/pplri8a.afm'
p1414
aS'/usr/share/matplotlib/mpl-data/fonts/afm/ptmbi8a.afm'
p1415
aS'/usr/share/matplotlib/mpl-data/fonts/afm/pbkli8a.afm'
p1416
aS'/usr/share/matplotlib/mpl-data/fonts/pdfcorefonts/Courier-Oblique.afm'
p1417
aS'/usr/share/matplotlib/mpl-data/fonts/afm/pcrb8a.afm'
p1418
aS'/usr/share/matplotlib/mpl-data/fonts/afm/pagd8a.afm'
p1419
aS'/usr/share/matplotlib/mpl-data/fonts/afm/pncr8a.afm'
p1420
aS'/usr/share/matplotlib/mpl-data/fonts/pdfcorefonts/Times-Italic.afm'
p1421
aS'/usr/share/matplotlib/mpl-data/fonts/afm/cmex10.afm'
p1422
aS'/usr/share/matplotlib/mpl-data/fonts/afm/phvro8an.afm'
p1423
aS'/usr/share/matplotlib/mpl-data/fonts/pdfcorefonts/Times-Roman.afm'
p1424
aS'/usr/share/matplotlib/mpl-data/fonts/afm/phvbo8an.afm'
p1425
aS'/usr/share/matplotlib/mpl-data/fonts/pdfcorefonts/Courier.afm'
p1426
aS'/usr/share/matplotlib/mpl-data/fonts/afm/pncri8a.afm'
p1427
aS'/usr/share/fonts/type1/gsfonts/n021024l.afm'
p1428
aS'/usr/share/fonts/X11/Type1/lmtt10.afm'
p1429
aS'/usr/share/fonts/type1/gsfonts/n019003l.afm'
p1430
aS'/usr/share/fonts/type1/gsfonts/c059016l.afm'
p1431
aS'/usr/share/fonts/X11/Type1/lmbx10.afm'
p1432
aS'/usr/share/fonts/type1/gsfonts/d050000l.afm'
p1433
aS'/usr/share/fonts/X11/Type1/lmssdo10.afm'
p1434
aS'/usr/share/fonts/X11/Type1/lmssqbx8.afm'
p1435
aS'/usr/share/fonts/X11/Type1/lmbxi10.afm'
p1436
aS'/usr/share/fonts/X11/Type1/lmssqo8.afm'
p1437
aS'/usr/share/fonts/type1/gsfonts/b018012l.afm'
p1438
aS'/usr/share/fonts/X11/Type1/lmb10.afm'
p1439
aS'/usr/share/fonts/type1/gsfonts/n022023l.afm'
p1440
aS'/usr/share/fonts/type1/gsfonts/p052024l.afm'
p1441
aS'/usr/share/fonts/X11/Type1/lmssq8.afm'
p1442
aS'/usr/share/fonts/type1/gsfonts/b018015l.afm'
p1443
aS'/usr/share/fonts/X11/Type1/lmbxo10.afm'
p1444
aS'/usr/share/fonts/X11/Type1/lmvtko10.afm'
p1445
aS'/usr/share/fonts/type1/gsfonts/z003034l.afm'
p1446
aS'/usr/share/fonts/X11/Type1/lmtcsc10.afm'
p1447
aS'/usr/share/fonts/X11/Type1/lmcsco10.afm'
p1448
aS'/usr/share/fonts/type1/gsfonts/a010035l.afm'
p1449
aS'/usr/share/fonts/X11/Type1/lmtlc10.afm'
p1450
aS'/usr/share/fonts/type1/gsfonts/n022024l.afm'
p1451
aS'/usr/share/fonts/type1/gsfonts/c059033l.afm'
p1452
aS'/usr/share/fonts/type1/gsfonts/n019004l.afm'
p1453
aS'/usr/share/fonts/X11/Type1/c0633bt_.afm'
p1454
aS'/usr/share/fonts/X11/Type1/lmvtto10.afm'
p1455
aS'/usr/share/fonts/X11/Type1/lmdunh10.afm'
p1456
aS'/usr/share/fonts/X11/Type1/lmss10.afm'
p1457
aS'/usr/share/fonts/type1/gsfonts/n019064l.afm'
p1458
aS'/usr/share/fonts/X11/Type1/lmvtt10.afm'
p1459
aS'/usr/share/fonts/type1/gsfonts/b018032l.afm'
p1460
aS'/usr/share/fonts/X11/Type1/lmssbo10.afm'
p1461
aS'/usr/share/fonts/type1/gsfonts/b018035l.afm'
p1462
aS'/usr/share/fonts/X11/Type1/lmduno10.afm'
p1463
aS'/usr/share/fonts/type1/gsfonts/n019044l.afm'
p1464
aS'/usr/share/fonts/X11/Type1/c0611bt_.afm'
p1465
aS'/usr/share/fonts/X11/Type1/c0582bt_.afm'
p1466
aS'/usr/share/fonts/type1/gsfonts/p052004l.afm'
p1467
aS'/usr/share/fonts/type1/gsfonts/n022004l.afm'
p1468
aS'/usr/share/fonts/X11/Type1/c0583bt_.afm'
p1469
aS'/usr/share/fonts/type1/gsfonts/p052023l.afm'
p1470
aS'/usr/share/fonts/X11/Type1/lmtcso10.afm'
p1471
aS'/usr/share/fonts/type1/gsfonts/a010015l.afm'
p1472
aS'/usr/share/fonts/X11/Type1/lmro10.afm'
p1473
aS'/usr/share/fonts/type1/gsfonts/n021003l.afm'
p1474
aS'/usr/share/fonts/X11/Type1/lmcsc10.afm'
p1475
aS'/usr/share/fonts/type1/gsfonts/n019043l.afm'
p1476
aS'/usr/share/fonts/type1/gsfonts/n019023l.afm'
p1477
aS'/usr/share/fonts/X11/Type1/lmtko10.afm'
p1478
aS'/usr/share/fonts/type1/gsfonts/s050000l.afm'
p1479
aS'/usr/share/fonts/type1/mathml/Symbol.afm'
p1480
aS'/usr/share/fonts/X11/Type1/lmsso10.afm'
p1481
aS'/usr/share/fonts/X11/Type1/lmbo10.afm'
p1482
aS'/usr/share/fonts/type1/gsfonts/c059036l.afm'
p1483
aS'/usr/share/fonts/X11/Type1/lmri10.afm'
p1484
aS'/usr/share/fonts/X11/Type1/Symbol.afm'
p1485
aS'/usr/share/fonts/X11/Type1/lmssqbo8.afm'
p1486
aS'/usr/share/fonts/type1/gsfonts/p052003l.afm'
p1487
aS'/usr/share/fonts/X11/Type1/lmr10.afm'
p1488
aS'/usr/share/fonts/X11/Type1/c0649bt_.afm'
p1489
aS'/usr/share/fonts/type1/gsfonts/a010013l.afm'
p1490
aS'/usr/share/fonts/X11/Type1/lmtk10.afm'
p1491
aS'/usr/share/fonts/X11/Type1/lmssdc10.afm'
p1492
aS'/usr/share/fonts/X11/Type1/lmssbx10.afm'
p1493
aS'/usr/share/fonts/type1/gsfonts/n019024l.afm'
p1494
aS'/usr/share/fonts/X11/Type1/lmvtk10.afm'
p1495
aS'/usr/share/fonts/type1/gsfonts/n022003l.afm'
p1496
aS'/usr/share/fonts/X11/Type1/lmtto10.afm'
p1497
aS'/usr/share/fonts/X11/Type1/c0648bt_.afm'
p1498
aS'/usr/share/fonts/X11/Type1/lmvtlo10.afm'
p1499
aS'/usr/share/fonts/type1/gsfonts/c059013l.afm'
p1500
aS'/usr/share/fonts/type1/gsfonts/n021023l.afm'
p1501
aS'/usr/share/fonts/type1/gsfonts/n021004l.afm'
p1502
aS'/usr/share/fonts/X11/Type1/lmtlo10.afm'
p1503
aS'/usr/share/fonts/type1/gsfonts/a010033l.afm'
p1504
aS'/usr/share/fonts/X11/Type1/lmvtl10.afm'
p1505
aS'/usr/share/fonts/X11/Type1/lmtl10.afm'
p1506
aS'/usr/share/fonts/X11/Type1/lmtti10.afm'
p1507
aS'/usr/share/fonts/type1/gsfonts/n019063l.afm'
p1508
aS'/usr/share/fonts/X11/Type1/c0419bt_.afm'
p1509
aS'/usr/share/fonts/X11/Type1/lmtlco10.afm'
p1510
aS'/usr/share/fonts/X11/Type1/c0632bt_.afm'
p1511
aS'/usr/share/fonts/X11/Type1/lmu10.afm'
p1512
asS'afmlist'
p1513
(lp1514
g7
(g8
g9
NtRp1515
(dp1516
g12
g29
sg14
S'ITC Avant Garde Gothic'
p1517
sg16
I400
sg17
g13
sg18
g13
sg19
g1368
sg21
g22
sbag7
(g8
g9
NtRp1518
(dp1519
g12
g29
sg14
S'ITC Zapf Chancery'
p1520
sg16
I500
sg17
g13
sg18
g13
sg19
g1369
sg21
g22
sbag7
(g8
g9
NtRp1521
(dp1522
g12
g13
sg14
S'Helvetica'
p1523
sg16
I500
sg17
g13
sg18
g13
sg19
g1370
sg21
g22
sbag7
(g8
g9
NtRp1524
(dp1525
g12
g13
sg14
S'Helvetica'
p1526
sg16
I200
sg17
g13
sg18
g13
sg19
g1371
sg21
g22
sbag7
(g8
g9
NtRp1527
(dp1528
g12
g29
sg14
S'Utopia'
p1529
sg16
I700
sg17
g13
sg18
g13
sg19
g1372
sg21
g22
sbag7
(g8
g9
NtRp1530
(dp1531
g12
g29
sg14
S'Helvetica'
p1532
sg16
I700
sg17
g13
sg18
g13
sg19
g1373
sg21
g22
sbag7
(g8
g9
NtRp1533
(dp1534
g12
g13
sg14
S'Helvetica'
p1535
sg16
I700
sg17
g119
sg18
g13
sg19
g1374
sg21
g22
sbag7
(g8
g9
NtRp1536
(dp1537
g12
g13
sg14
S'ITC Bookman'
p1538
sg16
I600
sg17
g13
sg18
g13
sg19
g1375
sg21
g22
sbag7
(g8
g9
NtRp1539
(dp1540
g12
g29
sg14
S'Courier'
p1541
sg16
I700
sg17
g13
sg18
g13
sg19
g1376
sg21
g22
sbag7
(g8
g9
NtRp1542
(dp1543
g12
g13
sg14
S'Helvetica'
p1544
sg16
I700
sg17
g13
sg18
g13
sg19
g1377
sg21
g22
sbag7
(g8
g9
NtRp1545
(dp1546
g12
g29
sg14
S'Times'
p1547
sg16
I700
sg17
g13
sg18
g13
sg19
g1378
sg21
g22
sbag7
(g8
g9
NtRp1548
(dp1549
g12
g13
sg14
S'Utopia'
p1550
sg16
I400
sg17
g13
sg18
g13
sg19
g1379
sg21
g22
sbag7
(g8
g9
NtRp1551
(dp1552
g12
g13
sg14
S'Helvetica'
p1553
sg16
I500
sg17
g13
sg18
g13
sg19
g1380
sg21
g22
sbag7
(g8
g9
NtRp1554
(dp1555
g12
g13
sg14
S'Courier'
p1556
sg16
I500
sg17
g13
sg18
g13
sg19
g1381
sg21
g22
sbag7
(g8
g9
NtRp1557
(dp1558
g12
g13
sg14
S'New Century Schoolbook'
p1559
sg16
I700
sg17
g13
sg18
g13
sg19
g1382
sg21
g22
sbag7
(g8
g9
NtRp1560
(dp1561
g12
g13
sg14
S'Courier'
p1562
sg16
I700
sg17
g13
sg18
g13
sg19
g1383
sg21
g22
sbag7
(g8
g9
NtRp1563
(dp1564
g12
g29
sg14
S'Courier'
p1565
sg16
I500
sg17
g13
sg18
g13
sg19
g1384
sg21
g22
sbag7
(g8
g9
NtRp1566
(dp1567
g12
g29
sg14
S'ITC Avant Garde Gothic'
p1568
sg16
I600
sg17
g13
sg18
g13
sg19
g1385
sg21
g22
sbag7
(g8
g9
NtRp1569
(dp1570
g12
g13
sg14
S'Computer Modern'
p1571
sg16
I500
sg17
g13
sg18
g13
sg19
g1386
sg21
g22
sbag7
(g8
g9
NtRp1572
(dp1573
g12
g13
sg14
S'Symbol'
p1574
sg16
I500
sg17
g13
sg18
g13
sg19
g1387
sg21
g22
sbag7
(g8
g9
NtRp1575
(dp1576
g12
g13
sg14
S'Helvetica'
p1577
sg16
I500
sg17
g119
sg18
g13
sg19
g1388
sg21
g22
sbag7
(g8
g9
NtRp1578
(dp1579
g12
g29
sg14
S'Helvetica'
p1580
sg16
I500
sg17
g13
sg18
g13
sg19
g1389
sg21
g22
sbag7
(g8
g9
NtRp1581
(dp1582
g12
g13
sg14
S'Times'
p1583
sg16
I500
sg17
g13
sg18
g13
sg19
g1390
sg21
g22
sbag7
(g8
g9
NtRp1584
(dp1585
g12
g29
sg14
S'Helvetica'
p1586
sg16
I500
sg17
g13
sg18
g13
sg19
g1391
sg21
g22
sbag7
(g8
g9
NtRp1587
(dp1588
g12
g29
sg14
S'Palatino'
p1589
sg16
I700
sg17
g13
sg18
g13
sg19
g1392
sg21
g22
sbag7
(g8
g9
NtRp1590
(dp1591
g12
g29
sg14
S'Computer Modern'
p1592
sg16
I500
sg17
g13
sg18
g13
sg19
g1393
sg21
g22
sbag7
(g8
g9
NtRp1593
(dp1594
g12
g13
sg14
S'ITC Avant Garde Gothic'
p1595
sg16
I400
sg17
g13
sg18
g13
sg19
g1394
sg21
g22
sbag7
(g8
g9
NtRp1596
(dp1597
g12
g29
sg14
S'Courier'
p1598
sg16
I700
sg17
g13
sg18
g13
sg19
g1395
sg21
g22
sbag7
(g8
g9
NtRp1599
(dp1600
g12
g13
sg14
S'Utopia'
p1601
sg16
I700
sg17
g13
sg18
g13
sg19
g1396
sg21
g22
sbag7
(g8
g9
NtRp1602
(dp1603
g12
g29
sg14
S'Computer Modern'
p1604
sg16
I500
sg17
g13
sg18
g13
sg19
g1397
sg21
g22
sbag7
(g8
g9
NtRp1605
(dp1606
g12
g13
sg14
S'Palatino'
p1607
sg16
I700
sg17
g13
sg18
g13
sg19
g1398
sg21
g22
sbag7
(g8
g9
NtRp1608
(dp1609
g12
g29
sg14
S'ITC Bookman'
p1610
sg16
I600
sg17
g13
sg18
g13
sg19
g1399
sg21
g22
sbag7
(g8
g9
NtRp1611
(dp1612
g12
g29
sg14
S'Helvetica'
p1613
sg16
I700
sg17
g13
sg18
g13
sg19
g1400
sg21
g22
sbag7
(g8
g9
NtRp1614
(dp1615
g12
g13
sg14
S'Computer Modern'
p1616
sg16
I500
sg17
g13
sg18
g13
sg19
g1401
sg21
g22
sbag7
(g8
g9
NtRp1617
(dp1618
g12
g13
sg14
S'Times'
p1619
sg16
I700
sg17
g13
sg18
g13
sg19
g1402
sg21
g22
sbag7
(g8
g9
NtRp1620
(dp1621
g12
g13
sg14
S'Times'
p1622
sg16
I700
sg17
g13
sg18
g13
sg19
g1403
sg21
g22
sbag7
(g8
g9
NtRp1623
(dp1624
g12
g29
sg14
S'Helvetica'
p1625
sg16
I200
sg17
g13
sg18
g13
sg19
g1404
sg21
g22
sbag7
(g8
g9
NtRp1626
(dp1627
g12
g13
sg14
S'Helvetica'
p1628
sg16
I700
sg17
g13
sg18
g13
sg19
g1405
sg21
g22
sbag7
(g8
g9
NtRp1629
(dp1630
g12
g13
sg14
S'ITC Zapf Dingbats'
p1631
sg16
I500
sg17
g13
sg18
g13
sg19
g1406
sg21
g22
sbag7
(g8
g9
NtRp1632
(dp1633
g12
g29
sg14
S'Times'
p1634
sg16
I500
sg17
g13
sg18
g13
sg19
g1407
sg21
g22
sbag7
(g8
g9
NtRp1635
(dp1636
g12
g13
sg14
S'Palatino'
p1637
sg16
I500
sg17
g13
sg18
g13
sg19
g1408
sg21
g22
sbag7
(g8
g9
NtRp1638
(dp1639
g12
g13
sg14
S'ITC Bookman'
p1640
sg16
I200
sg17
g13
sg18
g13
sg19
g1409
sg21
g22
sbag7
(g8
g9
NtRp1641
(dp1642
g12
g29
sg14
S'New Century Schoolbook'
p1643
sg16
I700
sg17
g13
sg18
g13
sg19
g1410
sg21
g22
sbag7
(g8
g9
NtRp1644
(dp1645
g12
g13
sg14
S'ZapfDingbats'
p1646
sg16
I500
sg17
g13
sg18
g13
sg19
g1411
sg21
g22
sbag7
(g8
g9
NtRp1647
(dp1648
g12
g13
sg14
S'Symbol'
p1649
sg16
I500
sg17
g13
sg18
g13
sg19
g1412
sg21
g22
sbag7
(g8
g9
NtRp1650
(dp1651
g12
g29
sg14
S'Utopia'
p1652
sg16
I400
sg17
g13
sg18
g13
sg19
g1413
sg21
g22
sbag7
(g8
g9
NtRp1653
(dp1654
g12
g29
sg14
S'Palatino'
p1655
sg16
I500
sg17
g13
sg18
g13
sg19
g1414
sg21
g22
sbag7
(g8
g9
NtRp1656
(dp1657
g12
g29
sg14
S'Times'
p1658
sg16
I700
sg17
g13
sg18
g13
sg19
g1415
sg21
g22
sbag7
(g8
g9
NtRp1659
(dp1660
g12
g29
sg14
S'ITC Bookman'
p1661
sg16
I200
sg17
g13
sg18
g13
sg19
g1416
sg21
g22
sbag7
(g8
g9
NtRp1662
(dp1663
g12
g29
sg14
S'Courier'
p1664
sg16
I500
sg17
g13
sg18
g13
sg19
g1417
sg21
g22
sbag7
(g8
g9
NtRp1665
(dp1666
g12
g13
sg14
S'Courier'
p1667
sg16
I700
sg17
g13
sg18
g13
sg19
g1418
sg21
g22
sbag7
(g8
g9
NtRp1668
(dp1669
g12
g13
sg14
S'ITC Avant Garde Gothic'
p1670
sg16
I600
sg17
g13
sg18
g13
sg19
g1419
sg21
g22
sbag7
(g8
g9
NtRp1671
(dp1672
g12
g13
sg14
S'New Century Schoolbook'
p1673
sg16
I500
sg17
g13
sg18
g13
sg19
g1420
sg21
g22
sbag7
(g8
g9
NtRp1674
(dp1675
g12
g29
sg14
S'Times'
p1676
sg16
I500
sg17
g13
sg18
g13
sg19
g1421
sg21
g22
sbag7
(g8
g9
NtRp1677
(dp1678
g12
g13
sg14
S'Computer Modern'
p1679
sg16
I500
sg17
g13
sg18
g13
sg19
g1422
sg21
g22
sbag7
(g8
g9
NtRp1680
(dp1681
g12
g29
sg14
S'Helvetica'
p1682
sg16
I500
sg17
g119
sg18
g13
sg19
g1423
sg21
g22
sbag7
(g8
g9
NtRp1683
(dp1684
g12
g13
sg14
S'Times'
p1685
sg16
I500
sg17
g13
sg18
g13
sg19
g1424
sg21
g22
sbag7
(g8
g9
NtRp1686
(dp1687
g12
g29
sg14
S'Helvetica'
p1688
sg16
I700
sg17
g119
sg18
g13
sg19
g1425
sg21
g22
sbag7
(g8
g9
NtRp1689
(dp1690
g12
g13
sg14
S'Courier'
p1691
sg16
I500
sg17
g13
sg18
g13
sg19
g1426
sg21
g22
sbag7
(g8
g9
NtRp1692
(dp1693
g12
g29
sg14
S'New Century Schoolbook'
p1694
sg16
I500
sg17
g13
sg18
g13
sg19
g1427
sg21
g22
sbag7
(g8
g9
NtRp1695
(dp1696
g12
g29
sg14
S'Nimbus Roman No9 L'
p1697
sg16
I700
sg17
g13
sg18
g13
sg19
g1428
sg21
g22
sbag7
(g8
g9
NtRp1698
(dp1699
g12
g13
sg14
S'LMMono10'
p1700
sg16
I400
sg17
g13
sg18
g13
sg19
g1429
sg21
g22
sbag7
(g8
g9
NtRp1701
(dp1702
g12
g13
sg14
S'Nimbus Sans L'
p1703
sg16
I400
sg17
g13
sg18
g13
sg19
g1430
sg21
g22
sbag7
(g8
g9
NtRp1704
(dp1705
g12
g13
sg14
S'Century Schoolbook L'
p1706
sg16
I700
sg17
g13
sg18
g13
sg19
g1431
sg21
g22
sbag7
(g8
g9
NtRp1707
(dp1708
g12
g13
sg14
S'LMRoman10'
p1709
sg16
I700
sg17
g13
sg18
g13
sg19
g1432
sg21
g22
sbag7
(g8
g9
NtRp1710
(dp1711
g12
g13
sg14
S'Dingbats'
p1712
sg16
I400
sg17
g13
sg18
g13
sg19
g1433
sg21
g22
sbag7
(g8
g9
NtRp1713
(dp1714
g12
g29
sg14
S'LMSansDemiCond10'
p1715
sg16
I600
sg17
g119
sg18
g13
sg19
g1434
sg21
g22
sbag7
(g8
g9
NtRp1716
(dp1717
g12
g13
sg14
S'LMSansQuot8'
p1718
sg16
I700
sg17
g13
sg18
g13
sg19
g1435
sg21
g22
sbag7
(g8
g9
NtRp1719
(dp1720
g12
g29
sg14
S'LMRoman10'
p1721
sg16
I700
sg17
g13
sg18
g13
sg19
g1436
sg21
g22
sbag7
(g8
g9
NtRp1722
(dp1723
g12
g29
sg14
S'LMSansQuot8'
p1724
sg16
I400
sg17
g13
sg18
g13
sg19
g1437
sg21
g22
sbag7
(g8
g9
NtRp1725
(dp1726
g12
g13
sg14
S'URW Bookman L'
p1727
sg16
I400
sg17
g13
sg18
g13
sg19
g1438
sg21
g22
sbag7
(g8
g9
NtRp1728
(dp1729
g12
g13
sg14
S'LMRomanDemi10'
p1730
sg16
I600
sg17
g13
sg18
g13
sg19
g1439
sg21
g22
sbag7
(g8
g9
NtRp1731
(dp1732
g12
g29
sg14
S'Nimbus Mono L'
p1733
sg16
I400
sg17
g13
sg18
g13
sg19
g1440
sg21
g22
sbag7
(g8
g9
NtRp1734
(dp1735
g12
g29
sg14
S'URW Palladio L'
p1736
sg16
I700
sg17
g13
sg18
g13
sg19
g1441
sg21
g22
sbag7
(g8
g9
NtRp1737
(dp1738
g12
g13
sg14
S'LMSansQuot8'
p1739
sg16
I400
sg17
g13
sg18
g13
sg19
g1442
sg21
g22
sbag7
(g8
g9
NtRp1740
(dp1741
g12
g13
sg14
S'URW Bookman L'
p1742
sg16
I700
sg17
g13
sg18
g13
sg19
g1443
sg21
g22
sbag7
(g8
g9
NtRp1743
(dp1744
g12
g29
sg14
S'LMRomanSlant10'
p1745
sg16
I700
sg17
g13
sg18
g13
sg19
g1444
sg21
g22
sbag7
(g8
g9
NtRp1746
(dp1747
g12
g29
sg14
S'LMMonoPropLt10'
p1748
sg16
I700
sg17
g13
sg18
g13
sg19
g1445
sg21
g22
sbag7
(g8
g9
NtRp1749
(dp1750
g12
g29
sg14
S'URW Chancery L'
p1751
sg16
I500
sg17
g13
sg18
g13
sg19
g1446
sg21
g22
sbag7
(g8
g9
NtRp1752
(dp1753
g12
g13
sg14
S'LMMonoCaps10'
p1754
sg16
I400
sg17
g13
sg18
g13
sg19
g1447
sg21
g22
sbag7
(g8
g9
NtRp1755
(dp1756
g12
g29
sg14
S'LMRomanCaps10'
p1757
sg16
I400
sg17
g13
sg18
g13
sg19
g1448
sg21
g22
sbag7
(g8
g9
NtRp1758
(dp1759
g12
g29
sg14
S'URW Gothic L'
p1760
sg16
I600
sg17
g13
sg18
g13
sg19
g1449
sg21
g22
sbag7
(g8
g9
NtRp1761
(dp1762
g12
g13
sg14
S'LMMonoLtCond10'
p1763
sg16
I200
sg17
g119
sg18
g13
sg19
g1450
sg21
g22
sbag7
(g8
g9
NtRp1764
(dp1765
g12
g29
sg14
S'Nimbus Mono L'
p1766
sg16
I700
sg17
g13
sg18
g13
sg19
g1451
sg21
g22
sbag7
(g8
g9
NtRp1767
(dp1768
g12
g29
sg14
S'Century Schoolbook L'
p1769
sg16
I400
sg17
g13
sg18
g13
sg19
g1452
sg21
g22
sbag7
(g8
g9
NtRp1770
(dp1771
g12
g13
sg14
S'Nimbus Sans L'
p1772
sg16
I700
sg17
g13
sg18
g13
sg19
g1453
sg21
g22
sbag7
(g8
g9
NtRp1773
(dp1774
g12
g29
sg14
S'Bitstream Charter'
p1775
sg16
I700
sg17
g13
sg18
g13
sg19
g1454
sg21
g22
sbag7
(g8
g9
NtRp1776
(dp1777
g12
g29
sg14
S'LMMonoProp10'
p1778
sg16
I400
sg17
g13
sg18
g13
sg19
g1455
sg21
g22
sbag7
(g8
g9
NtRp1779
(dp1780
g12
g13
sg14
S'LMRomanDunh10'
p1781
sg16
I400
sg17
g13
sg18
g13
sg19
g1456
sg21
g22
sbag7
(g8
g9
NtRp1782
(dp1783
g12
g13
sg14
S'LMSans10'
p1784
sg16
I400
sg17
g13
sg18
g13
sg19
g1457
sg21
g22
sbag7
(g8
g9
NtRp1785
(dp1786
g12
g29
sg14
S'Nimbus Sans L'
p1787
sg16
I700
sg17
g119
sg18
g13
sg19
g1458
sg21
g22
sbag7
(g8
g9
NtRp1788
(dp1789
g12
g13
sg14
S'LMMonoProp10'
p1790
sg16
I400
sg17
g13
sg18
g13
sg19
g1459
sg21
g22
sbag7
(g8
g9
NtRp1791
(dp1792
g12
g29
sg14
S'URW Bookman L'
p1793
sg16
I400
sg17
g13
sg18
g13
sg19
g1460
sg21
g22
sbag7
(g8
g9
NtRp1794
(dp1795
g12
g29
sg14
S'LMSans10'
p1796
sg16
I700
sg17
g13
sg18
g13
sg19
g1461
sg21
g22
sbag7
(g8
g9
NtRp1797
(dp1798
g12
g29
sg14
S'URW Bookman L'
p1799
sg16
I700
sg17
g13
sg18
g13
sg19
g1462
sg21
g22
sbag7
(g8
g9
NtRp1800
(dp1801
g12
g29
sg14
S'LMRomanDunh10'
p1802
sg16
I400
sg17
g13
sg18
g13
sg19
g1463
sg21
g22
sbag7
(g8
g9
NtRp1803
(dp1804
g12
g13
sg14
S'Nimbus Sans L'
p1805
sg16
I700
sg17
g119
sg18
g13
sg19
g1464
sg21
g22
sbag7
(g8
g9
NtRp1806
(dp1807
g12
g29
sg14
S'Courier 10 Pitch'
p1808
sg16
I700
sg17
g13
sg18
g13
sg19
g1465
sg21
g22
sbag7
(g8
g9
NtRp1809
(dp1810
g12
g29
sg14
S'Courier 10 Pitch'
p1811
sg16
I400
sg17
g13
sg18
g13
sg19
g1466
sg21
g22
sbag7
(g8
g9
NtRp1812
(dp1813
g12
g13
sg14
S'URW Palladio L'
p1814
sg16
I700
sg17
g13
sg18
g13
sg19
g1467
sg21
g22
sbag7
(g8
g9
NtRp1815
(dp1816
g12
g13
sg14
S'Nimbus Mono L'
p1817
sg16
I700
sg17
g13
sg18
g13
sg19
g1468
sg21
g22
sbag7
(g8
g9
NtRp1818
(dp1819
g12
g13
sg14
S'Courier 10 Pitch'
p1820
sg16
I700
sg17
g13
sg18
g13
sg19
g1469
sg21
g22
sbag7
(g8
g9
NtRp1821
(dp1822
g12
g29
sg14
S'URW Palladio L'
p1823
sg16
I400
sg17
g13
sg18
g13
sg19
g1470
sg21
g22
sbag7
(g8
g9
NtRp1824
(dp1825
g12
g29
sg14
S'LMMonoCaps10'
p1826
sg16
I400
sg17
g13
sg18
g13
sg19
g1471
sg21
g22
sbag7
(g8
g9
NtRp1827
(dp1828
g12
g13
sg14
S'URW Gothic L'
p1829
sg16
I600
sg17
g13
sg18
g13
sg19
g1472
sg21
g22
sbag7
(g8
g9
NtRp1830
(dp1831
g12
g29
sg14
S'LMRomanSlant10'
p1832
sg16
I400
sg17
g13
sg18
g13
sg19
g1473
sg21
g22
sbag7
(g8
g9
NtRp1833
(dp1834
g12
g13
sg14
S'Nimbus Roman No9 L'
p1835
sg16
I400
sg17
g13
sg18
g13
sg19
g1474
sg21
g22
sbag7
(g8
g9
NtRp1836
(dp1837
g12
g13
sg14
S'LMRomanCaps10'
p1838
sg16
I400
sg17
g13
sg18
g13
sg19
g1475
sg21
g22
sbag7
(g8
g9
NtRp1839
(dp1840
g12
g13
sg14
S'Nimbus Sans L'
p1841
sg16
I400
sg17
g119
sg18
g13
sg19
g1476
sg21
g22
sbag7
(g8
g9
NtRp1842
(dp1843
g12
g29
sg14
S'Nimbus Sans L'
p1844
sg16
I400
sg17
g13
sg18
g13
sg19
g1477
sg21
g22
sbag7
(g8
g9
NtRp1845
(dp1846
g12
g29
sg14
S'LMMonoLt10'
p1847
sg16
I700
sg17
g13
sg18
g13
sg19
g1478
sg21
g22
sbag7
(g8
g9
NtRp1848
(dp1849
g12
g13
sg14
S'Standard Symbols L'
p1850
sg16
I400
sg17
g13
sg18
g13
sg19
g1479
sg21
g22
sbag7
(g8
g9
NtRp1851
(dp1852
g12
g29
sg14
S'LMSans10'
p1853
sg16
I400
sg17
g13
sg18
g13
sg19
g1481
sg21
g22
sbag7
(g8
g9
NtRp1854
(dp1855
g12
g29
sg14
S'LMRomanDemi10'
p1856
sg16
I600
sg17
g13
sg18
g13
sg19
g1482
sg21
g22
sbag7
(g8
g9
NtRp1857
(dp1858
g12
g29
sg14
S'Century Schoolbook L'
p1859
sg16
I700
sg17
g13
sg18
g13
sg19
g1483
sg21
g22
sbag7
(g8
g9
NtRp1860
(dp1861
g12
g29
sg14
S'LMRoman10'
p1862
sg16
I400
sg17
g13
sg18
g13
sg19
g1484
sg21
g22
sbag7
(g8
g9
NtRp1863
(dp1864
g12
g29
sg14
S'LMSansQuot8'
p1865
sg16
I700
sg17
g13
sg18
g13
sg19
g1486
sg21
g22
sbag7
(g8
g9
NtRp1866
(dp1867
g12
g13
sg14
S'URW Palladio L'
p1868
sg16
I500
sg17
g13
sg18
g13
sg19
g1487
sg21
g22
sbag7
(g8
g9
NtRp1869
(dp1870
g12
g13
sg14
S'LMRoman10'
p1871
sg16
I400
sg17
g13
sg18
g13
sg19
g1488
sg21
g22
sbag7
(g8
g9
NtRp1872
(dp1873
g12
g29
sg14
S'Bitstream Charter'
p1874
sg16
I400
sg17
g13
sg18
g13
sg19
g1489
sg21
g22
sbag7
(g8
g9
NtRp1875
(dp1876
g12
g13
sg14
S'URW Gothic L'
p1877
sg16
I400
sg17
g13
sg18
g13
sg19
g1490
sg21
g22
sbag7
(g8
g9
NtRp1878
(dp1879
g12
g13
sg14
S'LMMonoLt10'
p1880
sg16
I700
sg17
g13
sg18
g13
sg19
g1491
sg21
g22
sbag7
(g8
g9
NtRp1881
(dp1882
g12
g13
sg14
S'LMSansDemiCond10'
p1883
sg16
I600
sg17
g119
sg18
g13
sg19
g1492
sg21
g22
sbag7
(g8
g9
NtRp1884
(dp1885
g12
g13
sg14
S'LMSans10'
p1886
sg16
I700
sg17
g13
sg18
g13
sg19
g1493
sg21
g22
sbag7
(g8
g9
NtRp1887
(dp1888
g12
g29
sg14
S'Nimbus Sans L'
p1889
sg16
I700
sg17
g13
sg18
g13
sg19
g1494
sg21
g22
sbag7
(g8
g9
NtRp1890
(dp1891
g12
g13
sg14
S'LMMonoPropLt10'
p1892
sg16
I700
sg17
g13
sg18
g13
sg19
g1495
sg21
g22
sbag7
(g8
g9
NtRp1893
(dp1894
g12
g13
sg14
S'Nimbus Mono L'
p1895
sg16
I400
sg17
g13
sg18
g13
sg19
g1496
sg21
g22
sbag7
(g8
g9
NtRp1896
(dp1897
g12
g29
sg14
S'LMMonoSlant10'
p1898
sg16
I400
sg17
g13
sg18
g13
sg19
g1497
sg21
g22
sbag7
(g8
g9
NtRp1899
(dp1900
g12
g13
sg14
S'Bitstream Charter'
p1901
sg16
I400
sg17
g13
sg18
g13
sg19
g1498
sg21
g22
sbag7
(g8
g9
NtRp1902
(dp1903
g12
g29
sg14
S'LMMonoPropLt10'
p1904
sg16
I200
sg17
g13
sg18
g13
sg19
g1499
sg21
g22
sbag7
(g8
g9
NtRp1905
(dp1906
g12
g13
sg14
S'Century Schoolbook L'
p1907
sg16
I500
sg17
g13
sg18
g13
sg19
g1500
sg21
g22
sbag7
(g8
g9
NtRp1908
(dp1909
g12
g29
sg14
S'Nimbus Roman No9 L'
p1910
sg16
I400
sg17
g13
sg18
g13
sg19
g1501
sg21
g22
sbag7
(g8
g9
NtRp1911
(dp1912
g12
g13
sg14
S'Nimbus Roman No9 L'
p1913
sg16
I700
sg17
g13
sg18
g13
sg19
g1502
sg21
g22
sbag7
(g8
g9
NtRp1914
(dp1915
g12
g29
sg14
S'LMMonoLt10'
p1916
sg16
I200
sg17
g13
sg18
g13
sg19
g1503
sg21
g22
sbag7
(g8
g9
NtRp1917
(dp1918
g12
g29
sg14
S'URW Gothic L'
p1919
sg16
I400
sg17
g13
sg18
g13
sg19
g1504
sg21
g22
sbag7
(g8
g9
NtRp1920
(dp1921
g12
g13
sg14
S'LMMonoPropLt10'
p1922
sg16
I200
sg17
g13
sg18
g13
sg19
g1505
sg21
g22
sbag7
(g8
g9
NtRp1923
(dp1924
g12
g13
sg14
S'LMMonoLt10'
p1925
sg16
I200
sg17
g13
sg18
g13
sg19
g1506
sg21
g22
sbag7
(g8
g9
NtRp1926
(dp1927
g12
g29
sg14
S'LMMono10'
p1928
sg16
I400
sg17
g13
sg18
g13
sg19
g1507
sg21
g22
sbag7
(g8
g9
NtRp1929
(dp1930
g12
g29
sg14
S'Nimbus Sans L'
p1931
sg16
I400
sg17
g119
sg18
g13
sg19
g1508
sg21
g22
sbag7
(g8
g9
NtRp1932
(dp1933
g12
g13
sg14
S'Courier 10 Pitch'
p1934
sg16
I400
sg17
g13
sg18
g13
sg19
g1509
sg21
g22
sbag7
(g8
g9
NtRp1935
(dp1936
g12
g29
sg14
S'LMMonoLtCond10'
p1937
sg16
I200
sg17
g119
sg18
g13
sg19
g1510
sg21
g22
sbag7
(g8
g9
NtRp1938
(dp1939
g12
g13
sg14
S'Bitstream Charter'
p1940
sg16
I700
sg17
g13
sg18
g13
sg19
g1511
sg21
g22
sbag7
(g8
g9
NtRp1941
(dp1942
g12
g13
sg14
S'LMRomanUnsl10'
p1943
sg16
I400
sg17
g13
sg18
g13
sg19
g1512
sg21
g22
sbasb.